ARM GAS  C:\Users\jobaek\AppData\Local\Temp\cceH1Qi4.s 			page 1


   1              		.syntax unified
   2              		.cpu cortex-m3
   3              		.fpu softvfp
   4              		.eabi_attribute 20, 1
   5              		.eabi_attribute 21, 1
   6              		.eabi_attribute 23, 3
   7              		.eabi_attribute 24, 1
   8              		.eabi_attribute 25, 1
   9              		.eabi_attribute 26, 1
  10              		.eabi_attribute 30, 1
  11              		.eabi_attribute 34, 1
  12              		.eabi_attribute 18, 4
  13              		.thumb
  14              		.syntax unified
  15              		.file	"Bootloadable_1.c"
  16              		.text
  17              	.Ltext0:
  18              		.cfi_sections	.debug_frame
  19              		.section	.text.Bootloadable_1_Load,"ax",%progbits
  20              		.align	2
  21              		.global	Bootloadable_1_Load
  22              		.thumb
  23              		.thumb_func
  24              		.type	Bootloadable_1_Load, %function
  25              	Bootloadable_1_Load:
  26              	.LFB0:
  27              		.file 1 "Generated_Source\\PSoC5\\Bootloadable_1.c"
   1:Generated_Source\PSoC5/Bootloadable_1.c **** /****************************************************************************//**
   2:Generated_Source\PSoC5/Bootloadable_1.c **** * \file Bootloadable_1.c
   3:Generated_Source\PSoC5/Bootloadable_1.c **** * \version 1.60
   4:Generated_Source\PSoC5/Bootloadable_1.c **** *
   5:Generated_Source\PSoC5/Bootloadable_1.c **** * \brief
   6:Generated_Source\PSoC5/Bootloadable_1.c **** *   Provides an API for the Bootloadable application.
   7:Generated_Source\PSoC5/Bootloadable_1.c **** *
   8:Generated_Source\PSoC5/Bootloadable_1.c **** ********************************************************************************
   9:Generated_Source\PSoC5/Bootloadable_1.c **** * \copyright
  10:Generated_Source\PSoC5/Bootloadable_1.c **** * Copyright 2008-2015, Cypress Semiconductor Corporation.  All rights reserved.
  11:Generated_Source\PSoC5/Bootloadable_1.c **** * You may use this file only in accordance with the license, terms, conditions,
  12:Generated_Source\PSoC5/Bootloadable_1.c **** * disclaimers, and limitations in the end user license agreement accompanying
  13:Generated_Source\PSoC5/Bootloadable_1.c **** * the software package with which this file was provided.
  14:Generated_Source\PSoC5/Bootloadable_1.c **** *******************************************************************************/
  15:Generated_Source\PSoC5/Bootloadable_1.c **** 
  16:Generated_Source\PSoC5/Bootloadable_1.c **** #include "Bootloadable_1.h"
  17:Generated_Source\PSoC5/Bootloadable_1.c **** 
  18:Generated_Source\PSoC5/Bootloadable_1.c **** /**
  19:Generated_Source\PSoC5/Bootloadable_1.c ****  \defgroup functions_group Functions
  20:Generated_Source\PSoC5/Bootloadable_1.c ****  @{
  21:Generated_Source\PSoC5/Bootloadable_1.c **** */
  22:Generated_Source\PSoC5/Bootloadable_1.c **** 
  23:Generated_Source\PSoC5/Bootloadable_1.c **** #if (CYDEV_PROJ_TYPE == CYDEV_PROJ_TYPE_LOADABLEANDBOOTLOADER)
  24:Generated_Source\PSoC5/Bootloadable_1.c **** static cystatus Bootloadable_1_WriteFlashByte(const uint32 address, const uint8 inputValue) CYLARGE
  25:Generated_Source\PSoC5/Bootloadable_1.c ****                                ;
  26:Generated_Source\PSoC5/Bootloadable_1.c **** #endif /*(CYDEV_PROJ_TYPE == CYDEV_PROJ_TYPE_LOADABLEANDBOOTLOADER)*/
  27:Generated_Source\PSoC5/Bootloadable_1.c **** 
  28:Generated_Source\PSoC5/Bootloadable_1.c **** /*******************************************************************************
  29:Generated_Source\PSoC5/Bootloadable_1.c **** * Function Name: Bootloadable_1_Load
  30:Generated_Source\PSoC5/Bootloadable_1.c **** ****************************************************************************//**
ARM GAS  C:\Users\jobaek\AppData\Local\Temp\cceH1Qi4.s 			page 2


  31:Generated_Source\PSoC5/Bootloadable_1.c **** *
  32:Generated_Source\PSoC5/Bootloadable_1.c **** * \brief
  33:Generated_Source\PSoC5/Bootloadable_1.c **** *  Schedules the Bootloader/Launcher to be launched and then performs
  34:Generated_Source\PSoC5/Bootloadable_1.c **** *  a software reset to launch it
  35:Generated_Source\PSoC5/Bootloadable_1.c **** *
  36:Generated_Source\PSoC5/Bootloadable_1.c **** * \return
  37:Generated_Source\PSoC5/Bootloadable_1.c **** *  This method will never return. It will load a new application and reset
  38:Generated_Source\PSoC5/Bootloadable_1.c **** *  the device.
  39:Generated_Source\PSoC5/Bootloadable_1.c **** *
  40:Generated_Source\PSoC5/Bootloadable_1.c **** *******************************************************************************/
  41:Generated_Source\PSoC5/Bootloadable_1.c **** void Bootloadable_1_Load(void) 
  42:Generated_Source\PSoC5/Bootloadable_1.c **** {
  28              		.loc 1 42 0
  29              		.cfi_startproc
  30              		@ args = 0, pretend = 0, frame = 0
  31              		@ frame_needed = 0, uses_anonymous_args = 0
  32 0000 08B5     		push	{r3, lr}
  33              		.cfi_def_cfa_offset 8
  34              		.cfi_offset 3, -8
  35              		.cfi_offset 14, -4
  43:Generated_Source\PSoC5/Bootloadable_1.c ****     /* Schedule Bootloader to start after reset */
  44:Generated_Source\PSoC5/Bootloadable_1.c ****     Bootloadable_1_SET_RUN_TYPE(Bootloadable_1_SCHEDULE_BTLDR);
  36              		.loc 1 44 0
  37 0002 4022     		movs	r2, #64
  38 0004 024B     		ldr	r3, .L3
  39 0006 1A70     		strb	r2, [r3]
  45:Generated_Source\PSoC5/Bootloadable_1.c **** 
  46:Generated_Source\PSoC5/Bootloadable_1.c ****     CySoftwareReset();
  40              		.loc 1 46 0
  41 0008 FFF7FEFF 		bl	CySoftwareReset
  42              	.LVL0:
  43 000c 08BD     		pop	{r3, pc}
  44              	.L4:
  45 000e 00BF     		.align	2
  46              	.L3:
  47 0010 FA460040 		.word	1073759994
  48              		.cfi_endproc
  49              	.LFE0:
  50              		.size	Bootloadable_1_Load, .-Bootloadable_1_Load
  51              		.section	.text.Bootloadable_1_SetFlashByte,"ax",%progbits
  52              		.align	2
  53              		.global	Bootloadable_1_SetFlashByte
  54              		.thumb
  55              		.thumb_func
  56              		.type	Bootloadable_1_SetFlashByte, %function
  57              	Bootloadable_1_SetFlashByte:
  58              	.LFB1:
  47:Generated_Source\PSoC5/Bootloadable_1.c **** }
  48:Generated_Source\PSoC5/Bootloadable_1.c **** 
  49:Generated_Source\PSoC5/Bootloadable_1.c **** #if (CYDEV_PROJ_TYPE == CYDEV_PROJ_TYPE_LOADABLEANDBOOTLOADER)
  50:Generated_Source\PSoC5/Bootloadable_1.c **** /*******************************************************************************
  51:Generated_Source\PSoC5/Bootloadable_1.c **** * Function Name: Bootloadable_1_GetActiveApplication
  52:Generated_Source\PSoC5/Bootloadable_1.c **** ****************************************************************************//**
  53:Generated_Source\PSoC5/Bootloadable_1.c **** *
  54:Generated_Source\PSoC5/Bootloadable_1.c **** * \brief
  55:Generated_Source\PSoC5/Bootloadable_1.c **** *   Gets the application which will be loaded after a next reset event.
  56:Generated_Source\PSoC5/Bootloadable_1.c **** *   NOTE Intended for the combination project type ONLY!
ARM GAS  C:\Users\jobaek\AppData\Local\Temp\cceH1Qi4.s 			page 3


  57:Generated_Source\PSoC5/Bootloadable_1.c **** *
  58:Generated_Source\PSoC5/Bootloadable_1.c **** * \return 
  59:Generated_Source\PSoC5/Bootloadable_1.c **** *  A number of the current active application set in the metadata section.
  60:Generated_Source\PSoC5/Bootloadable_1.c **** *  \n  0 - app#0 is set as active.
  61:Generated_Source\PSoC5/Bootloadable_1.c **** *  \n  1 - app#1 is set as active.
  62:Generated_Source\PSoC5/Bootloadable_1.c **** *
  63:Generated_Source\PSoC5/Bootloadable_1.c **** * \note If neither of the applications is set active, then the API returns 0x02.
  64:Generated_Source\PSoC5/Bootloadable_1.c **** *
  65:Generated_Source\PSoC5/Bootloadable_1.c **** *******************************************************************************/
  66:Generated_Source\PSoC5/Bootloadable_1.c **** uint8 Bootloadable_1_GetActiveApplication(void) CYSMALL \
  67:Generated_Source\PSoC5/Bootloadable_1.c ****                           
  68:Generated_Source\PSoC5/Bootloadable_1.c **** {   
  69:Generated_Source\PSoC5/Bootloadable_1.c ****     uint8 result = Bootloadable_1_MD_BTLDB_ACTIVE_NONE;
  70:Generated_Source\PSoC5/Bootloadable_1.c ****     
  71:Generated_Source\PSoC5/Bootloadable_1.c ****     if (0u != Bootloadable_1_GET_CODE_DATA( \
  72:Generated_Source\PSoC5/Bootloadable_1.c ****               Bootloadable_1_MD_BTLDB_ACTIVE_OFFSET(Bootloadable_1_MD_BTLDB_ACTIVE_0))) 
  73:Generated_Source\PSoC5/Bootloadable_1.c ****     {
  74:Generated_Source\PSoC5/Bootloadable_1.c ****         result = Bootloadable_1_MD_BTLDB_ACTIVE_0;
  75:Generated_Source\PSoC5/Bootloadable_1.c ****     }
  76:Generated_Source\PSoC5/Bootloadable_1.c ****     else if (0u != Bootloadable_1_GET_CODE_DATA( \
  77:Generated_Source\PSoC5/Bootloadable_1.c ****                    Bootloadable_1_MD_BTLDB_ACTIVE_OFFSET(Bootloadable_1_MD_BTLDB_ACTIVE_1)))
  78:Generated_Source\PSoC5/Bootloadable_1.c ****     {
  79:Generated_Source\PSoC5/Bootloadable_1.c ****         result = Bootloadable_1_MD_BTLDB_ACTIVE_1;    
  80:Generated_Source\PSoC5/Bootloadable_1.c ****     }
  81:Generated_Source\PSoC5/Bootloadable_1.c ****     else
  82:Generated_Source\PSoC5/Bootloadable_1.c ****     {
  83:Generated_Source\PSoC5/Bootloadable_1.c ****         /*Do nothing, result is none*/
  84:Generated_Source\PSoC5/Bootloadable_1.c ****     }
  85:Generated_Source\PSoC5/Bootloadable_1.c ****     
  86:Generated_Source\PSoC5/Bootloadable_1.c ****     return (result);
  87:Generated_Source\PSoC5/Bootloadable_1.c **** }
  88:Generated_Source\PSoC5/Bootloadable_1.c **** 
  89:Generated_Source\PSoC5/Bootloadable_1.c **** /*******************************************************************************
  90:Generated_Source\PSoC5/Bootloadable_1.c **** * Function Name: Bootloadable_1_SetActiveApplication
  91:Generated_Source\PSoC5/Bootloadable_1.c **** ****************************************************************************//**
  92:Generated_Source\PSoC5/Bootloadable_1.c **** *
  93:Generated_Source\PSoC5/Bootloadable_1.c **** * \brief 
  94:Generated_Source\PSoC5/Bootloadable_1.c **** *   Sets the application which will be loaded after a next reset event.          
  95:Generated_Source\PSoC5/Bootloadable_1.c **** *   
  96:Generated_Source\PSoC5/Bootloadable_1.c **** * \details
  97:Generated_Source\PSoC5/Bootloadable_1.c **** * Theory: 
  98:Generated_Source\PSoC5/Bootloadable_1.c **** *   This API sets in the Flash (metadata section) the given active application 
  99:Generated_Source\PSoC5/Bootloadable_1.c **** *   number.
 100:Generated_Source\PSoC5/Bootloadable_1.c **** *          
 101:Generated_Source\PSoC5/Bootloadable_1.c **** *   NOTE The active application number is not set directly, but the boolean 
 102:Generated_Source\PSoC5/Bootloadable_1.c **** *   mark instead means that the application is active or not for the relative 
 103:Generated_Source\PSoC5/Bootloadable_1.c **** *   metadata. Both metadata sections are updated. For example, if the second 
 104:Generated_Source\PSoC5/Bootloadable_1.c **** *   application is to be set active, then in the metadata section for the first 
 105:Generated_Source\PSoC5/Bootloadable_1.c **** *   application there will be a "0" written, which means that it is not active, and 
 106:Generated_Source\PSoC5/Bootloadable_1.c **** *   for the second metadata section there will be a "1" written, which means that it is 
 107:Generated_Source\PSoC5/Bootloadable_1.c **** *   active. 
 108:Generated_Source\PSoC5/Bootloadable_1.c **** *
 109:Generated_Source\PSoC5/Bootloadable_1.c **** *   NOTE Intended for the combination project type ONLY!
 110:Generated_Source\PSoC5/Bootloadable_1.c **** *
 111:Generated_Source\PSoC5/Bootloadable_1.c **** * \param appId  
 112:Generated_Source\PSoC5/Bootloadable_1.c **** *   The active application number to be written to flash (metadata section) 
 113:Generated_Source\PSoC5/Bootloadable_1.c **** *   NOTE Possible values are:
ARM GAS  C:\Users\jobaek\AppData\Local\Temp\cceH1Qi4.s 			page 4


 114:Generated_Source\PSoC5/Bootloadable_1.c **** *   0 - for the first application
 115:Generated_Source\PSoC5/Bootloadable_1.c **** *   1 - for the second application.
 116:Generated_Source\PSoC5/Bootloadable_1.c **** *   Any other number is considered invalid. 
 117:Generated_Source\PSoC5/Bootloadable_1.c **** *
 118:Generated_Source\PSoC5/Bootloadable_1.c **** * \return 
 119:Generated_Source\PSoC5/Bootloadable_1.c **** *   A status of writing to flash operation.
 120:Generated_Source\PSoC5/Bootloadable_1.c **** *   \n CYRET_SUCCESS - Returned if appId was successfully changed. 
 121:Generated_Source\PSoC5/Bootloadable_1.c **** *   \n CYRET_BAD_PARAM - Returned if the parameter appID passed to the function has the 
 122:Generated_Source\PSoC5/Bootloadable_1.c **** *                       same value as the active application ID. 
 123:Generated_Source\PSoC5/Bootloadable_1.c **** *   \note - The other non-zero value is considered as a failure during writing to flash.  
 124:Generated_Source\PSoC5/Bootloadable_1.c **** *
 125:Generated_Source\PSoC5/Bootloadable_1.c **** *   \note - This API does not update Bootloader_activeApp variable.
 126:Generated_Source\PSoC5/Bootloadable_1.c **** *
 127:Generated_Source\PSoC5/Bootloadable_1.c **** *******************************************************************************/
 128:Generated_Source\PSoC5/Bootloadable_1.c **** cystatus Bootloadable_1_SetActiveApplication(uint8 appId) CYSMALL \
 129:Generated_Source\PSoC5/Bootloadable_1.c ****                 
 130:Generated_Source\PSoC5/Bootloadable_1.c **** {
 131:Generated_Source\PSoC5/Bootloadable_1.c ****     cystatus result = CYRET_SUCCESS;
 132:Generated_Source\PSoC5/Bootloadable_1.c **** 
 133:Generated_Source\PSoC5/Bootloadable_1.c ****     uint8 CYDATA idx;
 134:Generated_Source\PSoC5/Bootloadable_1.c ****     
 135:Generated_Source\PSoC5/Bootloadable_1.c ****     /* If invalid application number */
 136:Generated_Source\PSoC5/Bootloadable_1.c ****     if (appId > Bootloadable_1_MD_BTLDB_ACTIVE_1)
 137:Generated_Source\PSoC5/Bootloadable_1.c ****     {
 138:Generated_Source\PSoC5/Bootloadable_1.c ****         result = CYRET_BAD_PARAM;
 139:Generated_Source\PSoC5/Bootloadable_1.c ****     }
 140:Generated_Source\PSoC5/Bootloadable_1.c ****     else
 141:Generated_Source\PSoC5/Bootloadable_1.c ****     {
 142:Generated_Source\PSoC5/Bootloadable_1.c ****         /* If appID has same value as active application ID */
 143:Generated_Source\PSoC5/Bootloadable_1.c ****         if (1u == Bootloadable_1_GET_CODE_DATA(Bootloadable_1_MD_BTLDB_ACTIVE_OFFSET(appId)))
 144:Generated_Source\PSoC5/Bootloadable_1.c ****         {
 145:Generated_Source\PSoC5/Bootloadable_1.c ****             result = CYRET_BAD_PARAM;
 146:Generated_Source\PSoC5/Bootloadable_1.c ****         }
 147:Generated_Source\PSoC5/Bootloadable_1.c ****         else
 148:Generated_Source\PSoC5/Bootloadable_1.c ****         {
 149:Generated_Source\PSoC5/Bootloadable_1.c ****             /* Updating metadata section */
 150:Generated_Source\PSoC5/Bootloadable_1.c ****             for(idx = 0u; idx < Bootloadable_1_MAX_NUM_OF_BTLDB; idx++)
 151:Generated_Source\PSoC5/Bootloadable_1.c ****             {
 152:Generated_Source\PSoC5/Bootloadable_1.c ****                 result |= Bootloadable_1_WriteFlashByte((uint32) Bootloadable_1_MD_BTLDB_ACTIVE_OFF
 153:Generated_Source\PSoC5/Bootloadable_1.c ****                                                                                             (uint8)
 154:Generated_Source\PSoC5/Bootloadable_1.c ****             }
 155:Generated_Source\PSoC5/Bootloadable_1.c ****         }
 156:Generated_Source\PSoC5/Bootloadable_1.c ****     }
 157:Generated_Source\PSoC5/Bootloadable_1.c ****     
 158:Generated_Source\PSoC5/Bootloadable_1.c ****     return (result);
 159:Generated_Source\PSoC5/Bootloadable_1.c **** }
 160:Generated_Source\PSoC5/Bootloadable_1.c **** 
 161:Generated_Source\PSoC5/Bootloadable_1.c **** /*******************************************************************************
 162:Generated_Source\PSoC5/Bootloadable_1.c **** * Function Name: Bootloadable_1_WriteFlashByte
 163:Generated_Source\PSoC5/Bootloadable_1.c **** ****************************************************************************//**
 164:Generated_Source\PSoC5/Bootloadable_1.c **** *
 165:Generated_Source\PSoC5/Bootloadable_1.c **** * \brief 
 166:Generated_Source\PSoC5/Bootloadable_1.c **** *   This API writes to flash the specified data.
 167:Generated_Source\PSoC5/Bootloadable_1.c **** *
 168:Generated_Source\PSoC5/Bootloadable_1.c **** * \param address 
 169:Generated_Source\PSoC5/Bootloadable_1.c **** *   The address in flash.
 170:Generated_Source\PSoC5/Bootloadable_1.c **** *
ARM GAS  C:\Users\jobaek\AppData\Local\Temp\cceH1Qi4.s 			page 5


 171:Generated_Source\PSoC5/Bootloadable_1.c **** * \param inputValue 
 172:Generated_Source\PSoC5/Bootloadable_1.c **** *   One-byte data.
 173:Generated_Source\PSoC5/Bootloadable_1.c **** *
 174:Generated_Source\PSoC5/Bootloadable_1.c **** * \return 
 175:Generated_Source\PSoC5/Bootloadable_1.c **** *   A status of the writing to flash procedure.
 176:Generated_Source\PSoC5/Bootloadable_1.c **** *
 177:Generated_Source\PSoC5/Bootloadable_1.c **** *******************************************************************************/
 178:Generated_Source\PSoC5/Bootloadable_1.c **** static cystatus Bootloadable_1_WriteFlashByte(const uint32 address, const uint8 inputValue) CYLARGE
 179:Generated_Source\PSoC5/Bootloadable_1.c ****                                
 180:Generated_Source\PSoC5/Bootloadable_1.c **** {
 181:Generated_Source\PSoC5/Bootloadable_1.c ****     cystatus result = CYRET_SUCCESS;
 182:Generated_Source\PSoC5/Bootloadable_1.c ****     uint32 flsAddr = address - CYDEV_FLASH_BASE;
 183:Generated_Source\PSoC5/Bootloadable_1.c ****     uint8  rowData[CYDEV_FLS_ROW_SIZE];
 184:Generated_Source\PSoC5/Bootloadable_1.c **** 
 185:Generated_Source\PSoC5/Bootloadable_1.c ****     #if !(CY_PSOC4)
 186:Generated_Source\PSoC5/Bootloadable_1.c ****         uint8 arrayId = ( uint8 )(flsAddr / CYDEV_FLS_SECTOR_SIZE);
 187:Generated_Source\PSoC5/Bootloadable_1.c ****     #endif  /* !(CY_PSOC4) */
 188:Generated_Source\PSoC5/Bootloadable_1.c **** 
 189:Generated_Source\PSoC5/Bootloadable_1.c ****     #if (CY_PSOC4)
 190:Generated_Source\PSoC5/Bootloadable_1.c ****         uint16 rowNum = ( uint16 )(flsAddr / CYDEV_FLS_ROW_SIZE);
 191:Generated_Source\PSoC5/Bootloadable_1.c ****     #else
 192:Generated_Source\PSoC5/Bootloadable_1.c ****         uint16 rowNum = ( uint16 )((flsAddr % CYDEV_FLS_SECTOR_SIZE) / CYDEV_FLS_ROW_SIZE);
 193:Generated_Source\PSoC5/Bootloadable_1.c ****     #endif  /* (CY_PSOC4) */
 194:Generated_Source\PSoC5/Bootloadable_1.c **** 
 195:Generated_Source\PSoC5/Bootloadable_1.c ****     uint32 baseAddr = address - (address % CYDEV_FLS_ROW_SIZE);
 196:Generated_Source\PSoC5/Bootloadable_1.c ****     uint16 idx;
 197:Generated_Source\PSoC5/Bootloadable_1.c **** 
 198:Generated_Source\PSoC5/Bootloadable_1.c ****     for(idx = 0u; idx < CYDEV_FLS_ROW_SIZE; idx++)
 199:Generated_Source\PSoC5/Bootloadable_1.c ****     {
 200:Generated_Source\PSoC5/Bootloadable_1.c ****         rowData[idx] = (uint8)Bootloadable_1_GET_CODE_DATA(baseAddr + idx);
 201:Generated_Source\PSoC5/Bootloadable_1.c ****     }
 202:Generated_Source\PSoC5/Bootloadable_1.c **** 
 203:Generated_Source\PSoC5/Bootloadable_1.c ****     rowData[address % CYDEV_FLS_ROW_SIZE] = inputValue;
 204:Generated_Source\PSoC5/Bootloadable_1.c **** 
 205:Generated_Source\PSoC5/Bootloadable_1.c ****     #if(CY_PSOC4)
 206:Generated_Source\PSoC5/Bootloadable_1.c ****         result = CySysFlashWriteRow((uint32) rowNum, rowData);
 207:Generated_Source\PSoC5/Bootloadable_1.c ****     #else
 208:Generated_Source\PSoC5/Bootloadable_1.c ****         result = CyWriteRowData(arrayId, rowNum, rowData);
 209:Generated_Source\PSoC5/Bootloadable_1.c ****     #endif  /* (CY_PSOC4) */
 210:Generated_Source\PSoC5/Bootloadable_1.c **** 
 211:Generated_Source\PSoC5/Bootloadable_1.c ****     #if(CY_PSOC5)
 212:Generated_Source\PSoC5/Bootloadable_1.c ****         /***************************************************************************
 213:Generated_Source\PSoC5/Bootloadable_1.c ****         * When writing to flash, data in the instruction cache can become stale.
 214:Generated_Source\PSoC5/Bootloadable_1.c ****         * Therefore, the cache data does not correlate to the data just written to
 215:Generated_Source\PSoC5/Bootloadable_1.c ****         * flash. A call to CyFlushCache() is required to invalidate the data in the
 216:Generated_Source\PSoC5/Bootloadable_1.c ****         * cache and force fresh information to be loaded from flash.
 217:Generated_Source\PSoC5/Bootloadable_1.c ****         ***************************************************************************/
 218:Generated_Source\PSoC5/Bootloadable_1.c ****         CyFlushCache();
 219:Generated_Source\PSoC5/Bootloadable_1.c ****     #endif /* (CY_PSOC5) */
 220:Generated_Source\PSoC5/Bootloadable_1.c ****     return (result);
 221:Generated_Source\PSoC5/Bootloadable_1.c **** }
 222:Generated_Source\PSoC5/Bootloadable_1.c **** #endif /*(CYDEV_PROJ_TYPE == CYDEV_PROJ_TYPE_LOADABLEANDBOOTLOADER)*/
 223:Generated_Source\PSoC5/Bootloadable_1.c **** /** @} functions_group */
 224:Generated_Source\PSoC5/Bootloadable_1.c **** 
 225:Generated_Source\PSoC5/Bootloadable_1.c **** /*******************************************************************************
 226:Generated_Source\PSoC5/Bootloadable_1.c **** * The following code is OBSOLETE and must not be used.
 227:Generated_Source\PSoC5/Bootloadable_1.c **** *******************************************************************************/
ARM GAS  C:\Users\jobaek\AppData\Local\Temp\cceH1Qi4.s 			page 6


 228:Generated_Source\PSoC5/Bootloadable_1.c **** void Bootloadable_1_SetFlashByte(uint32 address, uint8 runType) 
 229:Generated_Source\PSoC5/Bootloadable_1.c **** {
  59              		.loc 1 229 0
  60              		.cfi_startproc
  61              		@ args = 0, pretend = 0, frame = 256
  62              		@ frame_needed = 0, uses_anonymous_args = 0
  63              	.LVL1:
  64 0000 70B5     		push	{r4, r5, r6, lr}
  65              		.cfi_def_cfa_offset 16
  66              		.cfi_offset 4, -16
  67              		.cfi_offset 5, -12
  68              		.cfi_offset 6, -8
  69              		.cfi_offset 14, -4
  70 0002 C0B0     		sub	sp, sp, #256
  71              		.cfi_def_cfa_offset 272
  72 0004 0E46     		mov	r6, r1
  73              	.LVL2:
 230:Generated_Source\PSoC5/Bootloadable_1.c ****     uint32 flsAddr = address - CYDEV_FLASH_BASE;
 231:Generated_Source\PSoC5/Bootloadable_1.c ****     uint8  rowData[CYDEV_FLS_ROW_SIZE];
 232:Generated_Source\PSoC5/Bootloadable_1.c **** 
 233:Generated_Source\PSoC5/Bootloadable_1.c ****     #if !(CY_PSOC4)
 234:Generated_Source\PSoC5/Bootloadable_1.c ****         uint8 arrayId = ( uint8 )(flsAddr / CYDEV_FLS_SECTOR_SIZE);
  74              		.loc 1 234 0
  75 0006 C0F30745 		ubfx	r5, r0, #16, #8
  76              	.LVL3:
 235:Generated_Source\PSoC5/Bootloadable_1.c ****     #endif  /* !(CY_PSOC4) */
 236:Generated_Source\PSoC5/Bootloadable_1.c **** 
 237:Generated_Source\PSoC5/Bootloadable_1.c ****     #if (CY_PSOC4)
 238:Generated_Source\PSoC5/Bootloadable_1.c ****         uint16 rowNum = ( uint16 )(flsAddr / CYDEV_FLS_ROW_SIZE);
 239:Generated_Source\PSoC5/Bootloadable_1.c ****     #else
 240:Generated_Source\PSoC5/Bootloadable_1.c ****         uint16 rowNum = ( uint16 )((flsAddr % CYDEV_FLS_SECTOR_SIZE) / CYDEV_FLS_ROW_SIZE);
  77              		.loc 1 240 0
  78 000a C0F30721 		ubfx	r1, r0, #8, #8
  79              	.LVL4:
 241:Generated_Source\PSoC5/Bootloadable_1.c ****     #endif  /* (CY_PSOC4) */
 242:Generated_Source\PSoC5/Bootloadable_1.c **** 
 243:Generated_Source\PSoC5/Bootloadable_1.c ****     uint32 baseAddr = address - (address % CYDEV_FLS_ROW_SIZE);
  80              		.loc 1 243 0
  81 000e 20F0FF04 		bic	r4, r0, #255
  82              	.LVL5:
 244:Generated_Source\PSoC5/Bootloadable_1.c ****     uint16 idx;
 245:Generated_Source\PSoC5/Bootloadable_1.c **** 
 246:Generated_Source\PSoC5/Bootloadable_1.c **** 
 247:Generated_Source\PSoC5/Bootloadable_1.c ****     for (idx = 0u; idx < CYDEV_FLS_ROW_SIZE; idx++)
  83              		.loc 1 247 0
  84 0012 0023     		movs	r3, #0
  85 0014 04E0     		b	.L6
  86              	.LVL6:
  87              	.L7:
 248:Generated_Source\PSoC5/Bootloadable_1.c ****     {
 249:Generated_Source\PSoC5/Bootloadable_1.c ****         rowData[idx] = Bootloadable_1_GET_CODE_DATA(baseAddr + idx);
  88              		.loc 1 249 0 discriminator 3
  89 0016 1A5D     		ldrb	r2, [r3, r4]	@ zero_extendqisi2
  90 0018 0DF80320 		strb	r2, [sp, r3]
 247:Generated_Source\PSoC5/Bootloadable_1.c ****     {
  91              		.loc 1 247 0 discriminator 3
  92 001c 0133     		adds	r3, r3, #1
ARM GAS  C:\Users\jobaek\AppData\Local\Temp\cceH1Qi4.s 			page 7


  93              	.LVL7:
  94 001e 9BB2     		uxth	r3, r3
  95              	.LVL8:
  96              	.L6:
 247:Generated_Source\PSoC5/Bootloadable_1.c ****     {
  97              		.loc 1 247 0 is_stmt 0 discriminator 1
  98 0020 FF2B     		cmp	r3, #255
  99 0022 F8D9     		bls	.L7
 250:Generated_Source\PSoC5/Bootloadable_1.c ****     }
 251:Generated_Source\PSoC5/Bootloadable_1.c ****     rowData[address % CYDEV_FLS_ROW_SIZE] = runType;
 100              		.loc 1 251 0 is_stmt 1
 101 0024 C3B2     		uxtb	r3, r0
 102              	.LVL9:
 103 0026 0DF80360 		strb	r6, [sp, r3]
 252:Generated_Source\PSoC5/Bootloadable_1.c **** 
 253:Generated_Source\PSoC5/Bootloadable_1.c ****     #if(CY_PSOC4)
 254:Generated_Source\PSoC5/Bootloadable_1.c ****         (void) CySysFlashWriteRow((uint32) rowNum, rowData);
 255:Generated_Source\PSoC5/Bootloadable_1.c ****     #else
 256:Generated_Source\PSoC5/Bootloadable_1.c ****         (void) CyWriteRowData(arrayId, rowNum, rowData);
 104              		.loc 1 256 0
 105 002a 6A46     		mov	r2, sp
 106 002c 2846     		mov	r0, r5
 107              	.LVL10:
 108 002e FFF7FEFF 		bl	CyWriteRowData
 109              	.LVL11:
 257:Generated_Source\PSoC5/Bootloadable_1.c ****     #endif  /* (CY_PSOC4) */
 258:Generated_Source\PSoC5/Bootloadable_1.c **** 
 259:Generated_Source\PSoC5/Bootloadable_1.c ****     #if(CY_PSOC5)
 260:Generated_Source\PSoC5/Bootloadable_1.c ****         /***************************************************************************
 261:Generated_Source\PSoC5/Bootloadable_1.c ****         * When writing to flash, data in the instruction cache can become obsolete.
 262:Generated_Source\PSoC5/Bootloadable_1.c ****         * Therefore, the cache data does not correlate to the data just written to
 263:Generated_Source\PSoC5/Bootloadable_1.c ****         * flash. A call to CyFlushCache() is required to invalidate the data in the
 264:Generated_Source\PSoC5/Bootloadable_1.c ****         * cache and force fresh information to be loaded from flash.
 265:Generated_Source\PSoC5/Bootloadable_1.c ****         ***************************************************************************/
 266:Generated_Source\PSoC5/Bootloadable_1.c ****         CyFlushCache();
 110              		.loc 1 266 0
 111 0032 FFF7FEFF 		bl	CyFlushCache
 112              	.LVL12:
 267:Generated_Source\PSoC5/Bootloadable_1.c ****     #endif /* (CY_PSOC5) */
 268:Generated_Source\PSoC5/Bootloadable_1.c **** }
 113              		.loc 1 268 0
 114 0036 40B0     		add	sp, sp, #256
 115              		.cfi_def_cfa_offset 16
 116              		@ sp needed
 117 0038 70BD     		pop	{r4, r5, r6, pc}
 118              		.cfi_endproc
 119              	.LFE1:
 120              		.size	Bootloadable_1_SetFlashByte, .-Bootloadable_1_SetFlashByte
 121 003a 00BF     		.text
 122              	.Letext0:
 123              		.file 2 "Generated_Source\\PSoC5\\cytypes.h"
 124              		.file 3 "Generated_Source\\PSoC5\\CyLib.h"
 125              		.file 4 "Generated_Source\\PSoC5\\CyFlash.h"