ARM GAS  C:\Users\jobaek\AppData\Local\Temp\ccG7Gfbb.s 			page 1


   1              		.syntax unified
   2              		.cpu cortex-m3
   3              		.fpu softvfp
   4              		.eabi_attribute 20, 1
   5              		.eabi_attribute 21, 1
   6              		.eabi_attribute 23, 3
   7              		.eabi_attribute 24, 1
   8              		.eabi_attribute 25, 1
   9              		.eabi_attribute 26, 1
  10              		.eabi_attribute 30, 6
  11              		.eabi_attribute 34, 1
  12              		.eabi_attribute 18, 4
  13              		.thumb
  14              		.syntax unified
  15              		.file	"Bootloader.c"
  16              		.text
  17              	.Ltext0:
  18              		.cfi_sections	.debug_frame
  19              		.global	Bootloader_Checksum
  20              		.section	.bootloader,"a",%progbits
  21              		.type	Bootloader_Checksum, %object
  22              		.size	Bootloader_Checksum, 1
  23              	Bootloader_Checksum:
  24 0000 00       		.space	1
  25              		.global	Bootloader_SizeBytes
  26 0001 000000   		.align	2
  27              		.type	Bootloader_SizeBytes, %object
  28              		.size	Bootloader_SizeBytes, 4
  29              	Bootloader_SizeBytes:
  30 0004 FFFFFFFF 		.word	-1
  31              		.global	Bootloader_ChecksumAccess
  32              		.data
  33              		.align	2
  34              		.type	Bootloader_ChecksumAccess, %object
  35              		.size	Bootloader_ChecksumAccess, 4
  36              	Bootloader_ChecksumAccess:
  37 0000 00000000 		.word	Bootloader_Checksum
  38              		.global	Bootloader_SizeBytesAccess
  39              		.align	2
  40              		.type	Bootloader_SizeBytesAccess, %object
  41              		.size	Bootloader_SizeBytesAccess, 4
  42              	Bootloader_SizeBytesAccess:
  43 0004 00000000 		.word	Bootloader_SizeBytes
  44              		.bss
  45              		.align	2
  46              	Bootloader_callback:
  47 0000 00000000 		.space	4
  48              		.section	.text.Bootloader_CalcPacketChecksum,"ax",%progbits
  49              		.align	2
  50              		.thumb
  51              		.thumb_func
  52              		.type	Bootloader_CalcPacketChecksum, %function
  53              	Bootloader_CalcPacketChecksum:
  54              	.LFB63:
  55              		.file 1 "Generated_Source\\PSoC5\\Bootloader.c"
   1:Generated_Source\PSoC5/Bootloader.c **** /****************************************************************************//**
   2:Generated_Source\PSoC5/Bootloader.c **** * \file Bootloader.c
ARM GAS  C:\Users\jobaek\AppData\Local\Temp\ccG7Gfbb.s 			page 2


   3:Generated_Source\PSoC5/Bootloader.c **** * \version 1.60
   4:Generated_Source\PSoC5/Bootloader.c **** *
   5:Generated_Source\PSoC5/Bootloader.c **** * \brief
   6:Generated_Source\PSoC5/Bootloader.c **** *   Provides an API for the Bootloader component. The API includes functions
   7:Generated_Source\PSoC5/Bootloader.c **** *   for starting bootloading operations, validating the application and
   8:Generated_Source\PSoC5/Bootloader.c **** *   jumping to the application.
   9:Generated_Source\PSoC5/Bootloader.c **** *
  10:Generated_Source\PSoC5/Bootloader.c **** ********************************************************************************
  11:Generated_Source\PSoC5/Bootloader.c **** * \copyright
  12:Generated_Source\PSoC5/Bootloader.c **** * Copyright 2008-2018, Cypress Semiconductor Corporation.  All rights reserved.
  13:Generated_Source\PSoC5/Bootloader.c **** * You may use this file only in accordance with the license, terms, conditions,
  14:Generated_Source\PSoC5/Bootloader.c **** * disclaimers, and limitations in the end user license agreement accompanying
  15:Generated_Source\PSoC5/Bootloader.c **** * the software package with which this file was provided.
  16:Generated_Source\PSoC5/Bootloader.c **** *******************************************************************************/
  17:Generated_Source\PSoC5/Bootloader.c **** 
  18:Generated_Source\PSoC5/Bootloader.c **** #include "Bootloader_PVT.h"
  19:Generated_Source\PSoC5/Bootloader.c **** 
  20:Generated_Source\PSoC5/Bootloader.c **** 
  21:Generated_Source\PSoC5/Bootloader.c **** 
  22:Generated_Source\PSoC5/Bootloader.c **** #include "project.h"
  23:Generated_Source\PSoC5/Bootloader.c **** #include <string.h>
  24:Generated_Source\PSoC5/Bootloader.c **** 
  25:Generated_Source\PSoC5/Bootloader.c **** #if (CY_BOOT_VERSION < CY_BOOT_5_0)
  26:Generated_Source\PSoC5/Bootloader.c **** #error Component Bootloader_v1_60 requires cy_boot v5.00 or later
  27:Generated_Source\PSoC5/Bootloader.c **** #endif /* (CY_BOOT_VERSION >= CY_BOOT_5_0) */
  28:Generated_Source\PSoC5/Bootloader.c **** 
  29:Generated_Source\PSoC5/Bootloader.c **** /*******************************************************************************
  30:Generated_Source\PSoC5/Bootloader.c **** * The Checksum and SizeBytes are forcefully set in code. We then post process
  31:Generated_Source\PSoC5/Bootloader.c **** * the hex file from the linker and inject their values. When the hex file
  32:Generated_Source\PSoC5/Bootloader.c **** * is loaded into the device, these two variables should have valid values.
  33:Generated_Source\PSoC5/Bootloader.c **** * Because the compiler can do optimization to remove the constant
  34:Generated_Source\PSoC5/Bootloader.c **** * accesses, these should not be accessed directly. Instead, the variables
  35:Generated_Source\PSoC5/Bootloader.c **** * CyBtldr_ChecksumAccess & CyBtldr_SizeBytesAccess should be used to get the
  36:Generated_Source\PSoC5/Bootloader.c **** * proper values at the runtime.
  37:Generated_Source\PSoC5/Bootloader.c **** *******************************************************************************/
  38:Generated_Source\PSoC5/Bootloader.c **** #if (CYDEV_PROJ_TYPE != CYDEV_PROJ_TYPE_LOADABLEANDBOOTLOADER)
  39:Generated_Source\PSoC5/Bootloader.c **** #if defined(__ARMCC_VERSION) || defined (__GNUC__)
  40:Generated_Source\PSoC5/Bootloader.c ****     __attribute__((section (".bootloader"), used))
  41:Generated_Source\PSoC5/Bootloader.c **** #elif defined (__ICCARM__)
  42:Generated_Source\PSoC5/Bootloader.c ****     #pragma location=".bootloader"
  43:Generated_Source\PSoC5/Bootloader.c **** #endif  /* defined(__ARMCC_VERSION) || defined (__GNUC__) */
  44:Generated_Source\PSoC5/Bootloader.c **** 
  45:Generated_Source\PSoC5/Bootloader.c **** #if defined(__ARMCC_VERSION) || defined (__GNUC__) || defined (__C51__)
  46:Generated_Source\PSoC5/Bootloader.c ****            const uint8  CYCODE Bootloader_Checksum = 0u;
  47:Generated_Source\PSoC5/Bootloader.c **** #elif defined (__ICCARM__)
  48:Generated_Source\PSoC5/Bootloader.c ****     __root const uint8  CYCODE Bootloader_Checksum = 0u;
  49:Generated_Source\PSoC5/Bootloader.c **** #endif  /* defined(__ARMCC_VERSION) || defined (__GNUC__) || defined (__C51__) */
  50:Generated_Source\PSoC5/Bootloader.c **** const uint8  CYCODE *Bootloader_ChecksumAccess  = (const uint8  CYCODE *)(&Bootloader_Checksum);
  51:Generated_Source\PSoC5/Bootloader.c **** 
  52:Generated_Source\PSoC5/Bootloader.c **** #if defined(__ARMCC_VERSION) || defined (__GNUC__)
  53:Generated_Source\PSoC5/Bootloader.c ****     __attribute__((section (".bootloader"), used))
  54:Generated_Source\PSoC5/Bootloader.c ****     const uint32 CYCODE Bootloader_SizeBytes = 0xFFFFFFFFu;
  55:Generated_Source\PSoC5/Bootloader.c **** #elif defined (__ICCARM__)
  56:Generated_Source\PSoC5/Bootloader.c ****     #pragma location=".bootloader"
  57:Generated_Source\PSoC5/Bootloader.c ****     __root const uint32 CYCODE Bootloader_SizeBytes = 0xFFFFFFFFu;
  58:Generated_Source\PSoC5/Bootloader.c **** #elif defined (__C51__)
  59:Generated_Source\PSoC5/Bootloader.c ****     const uint32 CYCODE Bootloader_SizeBytes = 0xFFFFFFFFu;
ARM GAS  C:\Users\jobaek\AppData\Local\Temp\ccG7Gfbb.s 			page 3


  60:Generated_Source\PSoC5/Bootloader.c **** #endif  /* defined(__ARMCC_VERSION) || defined (__GNUC__) */
  61:Generated_Source\PSoC5/Bootloader.c **** 
  62:Generated_Source\PSoC5/Bootloader.c **** const uint32 CYCODE *Bootloader_SizeBytesAccess = (const uint32 CYCODE *)(&Bootloader_SizeBytes);
  63:Generated_Source\PSoC5/Bootloader.c **** #endif /*(CYDEV_PROJ_TYPE != CYDEV_PROJ_TYPE_LOADABLEANDBOOTLOADER)*/
  64:Generated_Source\PSoC5/Bootloader.c **** 
  65:Generated_Source\PSoC5/Bootloader.c **** /**
  66:Generated_Source\PSoC5/Bootloader.c ****  \defgroup variables_group Variables
  67:Generated_Source\PSoC5/Bootloader.c ****  @{
  68:Generated_Source\PSoC5/Bootloader.c **** */
  69:Generated_Source\PSoC5/Bootloader.c **** #if (CYDEV_PROJ_TYPE == CYDEV_PROJ_TYPE_LOADABLEANDBOOTLOADER) 
  70:Generated_Source\PSoC5/Bootloader.c **** /**
  71:Generated_Source\PSoC5/Bootloader.c ****  *  This variable is intended to indicate that in-application 
  72:Generated_Source\PSoC5/Bootloader.c ****  *  bootloading initialization is done. The initialization itself is performed in the
  73:Generated_Source\PSoC5/Bootloader.c ****  *  Bootloader_Initialize() function. Once the initialization is done,
  74:Generated_Source\PSoC5/Bootloader.c ****  *  the variable is set and this prevents the functionality from reinitialization.
  75:Generated_Source\PSoC5/Bootloader.c ****  */
  76:Generated_Source\PSoC5/Bootloader.c **** uint8 Bootloader_initVar = Bootloader_BOOTLOADING_NOT_INITIALIZED;
  77:Generated_Source\PSoC5/Bootloader.c **** 
  78:Generated_Source\PSoC5/Bootloader.c **** /**
  79:Generated_Source\PSoC5/Bootloader.c ****  *  This variable is intended to keep the current application number. It applies
  80:Generated_Source\PSoC5/Bootloader.c ****  *  only to in-application bootloading.
  81:Generated_Source\PSoC5/Bootloader.c ****  */
  82:Generated_Source\PSoC5/Bootloader.c **** uint8 Bootloader_runningApp = Bootloader_RUNNING_APPLICATION_UNKNOWN;
  83:Generated_Source\PSoC5/Bootloader.c **** 
  84:Generated_Source\PSoC5/Bootloader.c **** /**
  85:Generated_Source\PSoC5/Bootloader.c ****  *  This variable is intended to indicate that 'Enter bootloader' command has
  86:Generated_Source\PSoC5/Bootloader.c ****  *  been received. It applies only to in-application bootloading.
  87:Generated_Source\PSoC5/Bootloader.c ****  */
  88:Generated_Source\PSoC5/Bootloader.c **** uint8 Bootloader_isBootloading = Bootloader_BOOTLOADING_COMPLETED;
  89:Generated_Source\PSoC5/Bootloader.c **** #endif /*CYDEV_PROJ_TYPE == CYDEV_PROJ_TYPE_LOADABLEANDBOOTLOADER*/
  90:Generated_Source\PSoC5/Bootloader.c **** 
  91:Generated_Source\PSoC5/Bootloader.c **** #if ((0u != Bootloader_DUAL_APP_BOOTLOADER)  || (CYDEV_PROJ_TYPE == CYDEV_PROJ_TYPE_LOADABLEANDBOOT
  92:Generated_Source\PSoC5/Bootloader.c **** /**
  93:Generated_Source\PSoC5/Bootloader.c ****  *  This variable is intended to keep the active application number. It applies
  94:Generated_Source\PSoC5/Bootloader.c ****  *  to Classic Dual-app Bootloader and in-application bootloading.
  95:Generated_Source\PSoC5/Bootloader.c ****  */
  96:Generated_Source\PSoC5/Bootloader.c **** volatile uint8 Bootloader_activeApp = Bootloader_MD_BTLDB_ACTIVE_NONE;
  97:Generated_Source\PSoC5/Bootloader.c **** #else /*SINGLE-APP BOOTLOADER*/
  98:Generated_Source\PSoC5/Bootloader.c ****     #define Bootloader_activeApp      (Bootloader_MD_BTLDB_ACTIVE_0)
  99:Generated_Source\PSoC5/Bootloader.c **** #endif  /* (0u != Bootloader_DUAL_APP_BOOTLOADER) */
 100:Generated_Source\PSoC5/Bootloader.c **** 
 101:Generated_Source\PSoC5/Bootloader.c **** 
 102:Generated_Source\PSoC5/Bootloader.c **** #if (0u != Bootloader_SECURITY_KEY_AVAIL) 
 103:Generated_Source\PSoC5/Bootloader.c **** /**
 104:Generated_Source\PSoC5/Bootloader.c ****  *  This variable holds the security key for additional safety during communication.
 105:Generated_Source\PSoC5/Bootloader.c ****  */
 106:Generated_Source\PSoC5/Bootloader.c **** static const uint8 CYCODE Bootloader_securityKey[Bootloader_SECURITY_KEY_LENGTH] = {0x11u, 0x22u, 0
 107:Generated_Source\PSoC5/Bootloader.c **** #endif /*(0u != Bootloader_SECURITY_KEY_AVAIL)*/
 108:Generated_Source\PSoC5/Bootloader.c **** 
 109:Generated_Source\PSoC5/Bootloader.c **** #if ((CYDEV_PROJ_TYPE != CYDEV_PROJ_TYPE_LAUNCHER) && (!CY_PSOC3))
 110:Generated_Source\PSoC5/Bootloader.c **** /**
 111:Generated_Source\PSoC5/Bootloader.c ****  *  This variable holds the pointer on the user's callback-function that implements the custom 
 112:Generated_Source\PSoC5/Bootloader.c ****  *  bootloader command processing.
 113:Generated_Source\PSoC5/Bootloader.c ****  */
 114:Generated_Source\PSoC5/Bootloader.c **** static Bootloader_callback_type Bootloader_callback = NULL;
 115:Generated_Source\PSoC5/Bootloader.c **** #endif /*(CYDEV_PROJ_TYPE != CYDEV_PROJ_TYPE_LAUNCHER) && (!CY_PSOC3)*/
 116:Generated_Source\PSoC5/Bootloader.c **** /** @}*/
ARM GAS  C:\Users\jobaek\AppData\Local\Temp\ccG7Gfbb.s 			page 4


 117:Generated_Source\PSoC5/Bootloader.c ****  
 118:Generated_Source\PSoC5/Bootloader.c **** /***************************************
 119:Generated_Source\PSoC5/Bootloader.c **** *     Function Prototypes
 120:Generated_Source\PSoC5/Bootloader.c **** ***************************************/
 121:Generated_Source\PSoC5/Bootloader.c **** #if (CYDEV_PROJ_TYPE != CYDEV_PROJ_TYPE_LOADABLEANDBOOTLOADER)
 122:Generated_Source\PSoC5/Bootloader.c ****     static void  Bootloader_LaunchApplication(void) CYSMALL \
 123:Generated_Source\PSoC5/Bootloader.c ****                     ; 
 124:Generated_Source\PSoC5/Bootloader.c **** #if(!CY_PSOC3)
 125:Generated_Source\PSoC5/Bootloader.c ****     /* Implementation for PSoC 3 resides in Bootloader_psoc3.a51 file.  */
 126:Generated_Source\PSoC5/Bootloader.c ****     static void     Bootloader_LaunchBootloadable(uint32 appAddr);
 127:Generated_Source\PSoC5/Bootloader.c **** #endif  /* (!CY_PSOC3) */
 128:Generated_Source\PSoC5/Bootloader.c **** #endif /* CYDEV_PROJ_TYPE != CYDEV_PROJ_TYPE_LOADABLEANDBOOTLOADER */ 
 129:Generated_Source\PSoC5/Bootloader.c **** 
 130:Generated_Source\PSoC5/Bootloader.c **** #if (CYDEV_PROJ_TYPE != CYDEV_PROJ_TYPE_LAUNCHER)
 131:Generated_Source\PSoC5/Bootloader.c ****     static cystatus Bootloader_WritePacket(uint8 status, uint8 buffer[], uint16 size) CYSMALL \
 132:Generated_Source\PSoC5/Bootloader.c ****                                     ;
 133:Generated_Source\PSoC5/Bootloader.c **** 
 134:Generated_Source\PSoC5/Bootloader.c ****     static uint16   Bootloader_CalcPacketChecksum(const uint8 buffer[], uint16 size) CYSMALL \
 135:Generated_Source\PSoC5/Bootloader.c ****                                     ;
 136:Generated_Source\PSoC5/Bootloader.c ****                                     
 137:Generated_Source\PSoC5/Bootloader.c ****     #if (0u != Bootloader_CMD_VERIFY_FLS_ROW_AVAIL)
 138:Generated_Source\PSoC5/Bootloader.c ****     static uint8 Bootloader_VerifyRow(uint32 flashStart, const uint8 ramStart[], uint16 size) \
 139:Generated_Source\PSoC5/Bootloader.c ****                 CYSMALL ;                                
 140:Generated_Source\PSoC5/Bootloader.c ****     #endif /*(0u != Bootloader_CMD_VERIFY_FLS_ROW_AVAIL)*/            
 141:Generated_Source\PSoC5/Bootloader.c **** 
 142:Generated_Source\PSoC5/Bootloader.c **** #if (CYDEV_PROJ_TYPE != CYDEV_PROJ_TYPE_LOADABLEANDBOOTLOADER)                                    
 143:Generated_Source\PSoC5/Bootloader.c ****     static void Bootloader_HostLink(uint8 timeOut) CYLARGE ;
 144:Generated_Source\PSoC5/Bootloader.c **** #endif /* (CYDEV_PROJ_TYPE != CYDEV_PROJ_TYPE_LOADABLEANDBOOTLOADER) */                            
 145:Generated_Source\PSoC5/Bootloader.c **** #endif /*(CYDEV_PROJ_TYPE != CYDEV_PROJ_TYPE_LAUNCHER)*/
 146:Generated_Source\PSoC5/Bootloader.c ****                                     
 147:Generated_Source\PSoC5/Bootloader.c **** #if (((0u != Bootloader_DUAL_APP_BOOTLOADER) && (CYDEV_PROJ_TYPE != CYDEV_PROJ_TYPE_LAUNCHER)) \
 148:Generated_Source\PSoC5/Bootloader.c ****                                           || (CYDEV_PROJ_TYPE == CYDEV_PROJ_TYPE_LOADABLEANDBOOTLOA
 149:Generated_Source\PSoC5/Bootloader.c ****     static uint8 Bootloader_CheckImage(uint8 appNumber, uint8 arrayNumber, uint16 row, uint16 rowNu
 150:Generated_Source\PSoC5/Bootloader.c ****                                     ;                                    
 151:Generated_Source\PSoC5/Bootloader.c **** #endif /*(((0u != Bootloader_DUAL_APP_BOOTLOADER) && (CYDEV_PROJ_TYPE != CYDEV_PROJ_TYPE_LAUNCHER))
 152:Generated_Source\PSoC5/Bootloader.c ****                                           || (CYDEV_PROJ_TYPE == CYDEV_PROJ_TYPE_LOADABLEANDBOOTLOA
 153:Generated_Source\PSoC5/Bootloader.c **** 
 154:Generated_Source\PSoC5/Bootloader.c **** #if ((CYDEV_PROJ_TYPE == CYDEV_PROJ_TYPE_LOADABLEANDBOOTLOADER) || (0u != Bootloader_DUAL_APP_BOOTL
 155:Generated_Source\PSoC5/Bootloader.c ****     static void Bootloader_SetActiveAppInMetadata(uint8 activeApp) CYSMALL \
 156:Generated_Source\PSoC5/Bootloader.c ****                 ;
 157:Generated_Source\PSoC5/Bootloader.c **** #endif /* (CYDEV_PROJ_TYPE == CYDEV_PROJ_TYPE_LOADABLEANDBOOTLOADER) || (0u != Bootloader_DUAL_APP_
 158:Generated_Source\PSoC5/Bootloader.c **** 
 159:Generated_Source\PSoC5/Bootloader.c **** #if ((CYDEV_PROJ_TYPE == CYDEV_PROJ_TYPE_LOADABLEANDBOOTLOADER) || \
 160:Generated_Source\PSoC5/Bootloader.c ****      (CYDEV_PROJ_TYPE == CYDEV_PROJ_TYPE_MULTIAPPBOOTLOADER) || \
 161:Generated_Source\PSoC5/Bootloader.c ****      (CYDEV_PROJ_TYPE == CYDEV_PROJ_TYPE_LAUNCHER))
 162:Generated_Source\PSoC5/Bootloader.c ****     static uint8 Bootloader_GetActiveAppFromMetadata(void) CYSMALL \
 163:Generated_Source\PSoC5/Bootloader.c ****                 ;                     
 164:Generated_Source\PSoC5/Bootloader.c **** #endif /*((CYDEV_PROJ_TYPE == CYDEV_PROJ_TYPE_LOADABLEANDBOOTLOADER) || \
 165:Generated_Source\PSoC5/Bootloader.c ****           (CYDEV_PROJ_TYPE == CYDEV_PROJ_TYPE_MULTIAPPBOOTLOADER) || \
 166:Generated_Source\PSoC5/Bootloader.c ****           (CYDEV_PROJ_TYPE == CYDEV_PROJ_TYPE_LAUNCHER)) */
 167:Generated_Source\PSoC5/Bootloader.c ****           
 168:Generated_Source\PSoC5/Bootloader.c **** #if (CYDEV_PROJ_TYPE == CYDEV_PROJ_TYPE_LAUNCHER)
 169:Generated_Source\PSoC5/Bootloader.c **** #if ((0u != Bootloader_COPIER_AVAIL) && (CY_PSOC4)) 
 170:Generated_Source\PSoC5/Bootloader.c ****     static cystatus Bootloader_CopyRow(uint16 srcRowNum, uint16 dstRowNum) \
 171:Generated_Source\PSoC5/Bootloader.c ****                  CYSMALL ;
 172:Generated_Source\PSoC5/Bootloader.c ****     static void Bootloader_Copier(void) CYSMALL ;
 173:Generated_Source\PSoC5/Bootloader.c **** #endif /*(0u != Bootloader_COPIER_AVAIL) && (CY_PSOC4)*/
ARM GAS  C:\Users\jobaek\AppData\Local\Temp\ccG7Gfbb.s 			page 5


 174:Generated_Source\PSoC5/Bootloader.c **** #endif /*(CYDEV_PROJ_TYPE == CYDEV_PROJ_TYPE_LAUNCHER)*/
 175:Generated_Source\PSoC5/Bootloader.c ****                        
 176:Generated_Source\PSoC5/Bootloader.c **** 
 177:Generated_Source\PSoC5/Bootloader.c **** /**
 178:Generated_Source\PSoC5/Bootloader.c ****  \defgroup functions_group Functions
 179:Generated_Source\PSoC5/Bootloader.c ****  @{
 180:Generated_Source\PSoC5/Bootloader.c **** */
 181:Generated_Source\PSoC5/Bootloader.c **** #if ((CYDEV_PROJ_TYPE == CYDEV_PROJ_TYPE_LOADABLEANDBOOTLOADER) || \
 182:Generated_Source\PSoC5/Bootloader.c ****                                   (0u != Bootloader_DUAL_APP_BOOTLOADER))                          
 183:Generated_Source\PSoC5/Bootloader.c **** /*******************************************************************************
 184:Generated_Source\PSoC5/Bootloader.c **** * Function Name: Bootloader_SetActiveAppInMetadata
 185:Generated_Source\PSoC5/Bootloader.c **** ****************************************************************************//**
 186:Generated_Source\PSoC5/Bootloader.c **** * \internal
 187:Generated_Source\PSoC5/Bootloader.c **** *
 188:Generated_Source\PSoC5/Bootloader.c **** * \brief
 189:Generated_Source\PSoC5/Bootloader.c **** *    This function sets the active application in metadata.
 190:Generated_Source\PSoC5/Bootloader.c **** *    The other application is set inactive. 
 191:Generated_Source\PSoC5/Bootloader.c **** *
 192:Generated_Source\PSoC5/Bootloader.c **** * \param activeApp
 193:Generated_Source\PSoC5/Bootloader.c **** *   The active application number (0 or 1). If the active application number is
 194:Generated_Source\PSoC5/Bootloader.c **** *   greater than 1, then nothing is done.  
 195:Generated_Source\PSoC5/Bootloader.c **** *
 196:Generated_Source\PSoC5/Bootloader.c **** * \endinternal
 197:Generated_Source\PSoC5/Bootloader.c **** *******************************************************************************/
 198:Generated_Source\PSoC5/Bootloader.c **** static void Bootloader_SetActiveAppInMetadata(uint8 activeApp) CYSMALL \
 199:Generated_Source\PSoC5/Bootloader.c ****                      
 200:Generated_Source\PSoC5/Bootloader.c **** {
 201:Generated_Source\PSoC5/Bootloader.c ****     if (Bootloader_MD_BTLDB_ACTIVE_NONE > activeApp)
 202:Generated_Source\PSoC5/Bootloader.c ****     {
 203:Generated_Source\PSoC5/Bootloader.c ****         uint8 CYDATA idx;    
 204:Generated_Source\PSoC5/Bootloader.c ****     #if(!CY_PSOC4)      
 205:Generated_Source\PSoC5/Bootloader.c ****         if (CYRET_SUCCESS != CySetTemp())
 206:Generated_Source\PSoC5/Bootloader.c ****         {
 207:Generated_Source\PSoC5/Bootloader.c ****             CyHalt(0x00u);
 208:Generated_Source\PSoC5/Bootloader.c ****         }
 209:Generated_Source\PSoC5/Bootloader.c ****     #endif  /* (!CY_PSOC4) */    
 210:Generated_Source\PSoC5/Bootloader.c ****         for(idx = 0u; idx < Bootloader_MAX_NUM_OF_BTLDB; idx++)
 211:Generated_Source\PSoC5/Bootloader.c ****         {
 212:Generated_Source\PSoC5/Bootloader.c ****             (void)Bootloader_SetFlashByte((uint32) Bootloader_MD_BTLDB_ACTIVE_OFFSET(idx),
 213:Generated_Source\PSoC5/Bootloader.c ****                                                 (uint8)(idx == activeApp));
 214:Generated_Source\PSoC5/Bootloader.c ****         }
 215:Generated_Source\PSoC5/Bootloader.c ****     }    
 216:Generated_Source\PSoC5/Bootloader.c **** }
 217:Generated_Source\PSoC5/Bootloader.c **** #endif /* (CYDEV_PROJ_TYPE == CYDEV_PROJ_TYPE_LOADABLEANDBOOTLOADER) || 
 218:Generated_Source\PSoC5/Bootloader.c ****                            (0u != Bootloader_DUAL_APP_BOOTLOADER) */ 
 219:Generated_Source\PSoC5/Bootloader.c **** 
 220:Generated_Source\PSoC5/Bootloader.c **** #if ((CYDEV_PROJ_TYPE == CYDEV_PROJ_TYPE_LOADABLEANDBOOTLOADER) || \
 221:Generated_Source\PSoC5/Bootloader.c ****      (CYDEV_PROJ_TYPE == CYDEV_PROJ_TYPE_MULTIAPPBOOTLOADER) || \
 222:Generated_Source\PSoC5/Bootloader.c ****      (CYDEV_PROJ_TYPE == CYDEV_PROJ_TYPE_LAUNCHER))                   
 223:Generated_Source\PSoC5/Bootloader.c **** /*******************************************************************************
 224:Generated_Source\PSoC5/Bootloader.c **** * Function Name: Bootloader_GetActiveAppFromMetadata
 225:Generated_Source\PSoC5/Bootloader.c **** ****************************************************************************//**
 226:Generated_Source\PSoC5/Bootloader.c **** * \internal
 227:Generated_Source\PSoC5/Bootloader.c **** *
 228:Generated_Source\PSoC5/Bootloader.c **** * \brief
 229:Generated_Source\PSoC5/Bootloader.c **** *    This function performs reading of both metadata sections to
 230:Generated_Source\PSoC5/Bootloader.c **** *    identify an active application. If none application is set active, 
ARM GAS  C:\Users\jobaek\AppData\Local\Temp\ccG7Gfbb.s 			page 6


 231:Generated_Source\PSoC5/Bootloader.c **** *    then Bootloader_MD_BTLDB_ACTIVE_NONE (0x02) is returned.
 232:Generated_Source\PSoC5/Bootloader.c **** *
 233:Generated_Source\PSoC5/Bootloader.c **** * \return
 234:Generated_Source\PSoC5/Bootloader.c **** *   The number of active applications. In the case of error:
 235:Generated_Source\PSoC5/Bootloader.c **** *   -  Bootloader_MD_BTLDB_ACTIVE_NONE (0x02) - neither application is initialized;
 236:Generated_Source\PSoC5/Bootloader.c **** *   -  Bootloader_BOTH_ACTIVE (0x03) - both applications are set active;
 237:Generated_Source\PSoC5/Bootloader.c **** *
 238:Generated_Source\PSoC5/Bootloader.c **** * \endinternal 
 239:Generated_Source\PSoC5/Bootloader.c **** *******************************************************************************/
 240:Generated_Source\PSoC5/Bootloader.c **** static  uint8 Bootloader_GetActiveAppFromMetadata(void) CYSMALL \
 241:Generated_Source\PSoC5/Bootloader.c ****        
 242:Generated_Source\PSoC5/Bootloader.c **** {
 243:Generated_Source\PSoC5/Bootloader.c ****     uint8 CYDATA result;
 244:Generated_Source\PSoC5/Bootloader.c ****     uint8 CYDATA app0 = (uint8)Bootloader_GetMetadata(Bootloader_GET_BTLDB_ACTIVE, 
 245:Generated_Source\PSoC5/Bootloader.c ****                                                      Bootloader_MD_BTLDB_ACTIVE_0);
 246:Generated_Source\PSoC5/Bootloader.c ****     uint8 CYDATA app1 = (uint8)Bootloader_GetMetadata(Bootloader_GET_BTLDB_ACTIVE, 
 247:Generated_Source\PSoC5/Bootloader.c ****                                                      Bootloader_MD_BTLDB_ACTIVE_1);        
 248:Generated_Source\PSoC5/Bootloader.c **** 
 249:Generated_Source\PSoC5/Bootloader.c ****     if (0u != app0)                                                     
 250:Generated_Source\PSoC5/Bootloader.c ****     {
 251:Generated_Source\PSoC5/Bootloader.c ****         if (0u == app1)
 252:Generated_Source\PSoC5/Bootloader.c ****         {
 253:Generated_Source\PSoC5/Bootloader.c ****             /* app0 is active */
 254:Generated_Source\PSoC5/Bootloader.c ****             result = Bootloader_MD_BTLDB_ACTIVE_0;
 255:Generated_Source\PSoC5/Bootloader.c ****         }
 256:Generated_Source\PSoC5/Bootloader.c ****         else 
 257:Generated_Source\PSoC5/Bootloader.c ****         {
 258:Generated_Source\PSoC5/Bootloader.c ****             /* Both are active */
 259:Generated_Source\PSoC5/Bootloader.c ****             result = Bootloader_BOTH_ACTIVE;
 260:Generated_Source\PSoC5/Bootloader.c ****         }
 261:Generated_Source\PSoC5/Bootloader.c ****     }
 262:Generated_Source\PSoC5/Bootloader.c ****     else /* (0u == app0) */
 263:Generated_Source\PSoC5/Bootloader.c ****     {
 264:Generated_Source\PSoC5/Bootloader.c ****         if (0u != app1)
 265:Generated_Source\PSoC5/Bootloader.c ****         {
 266:Generated_Source\PSoC5/Bootloader.c ****             /* app1 is active */
 267:Generated_Source\PSoC5/Bootloader.c ****             result = Bootloader_MD_BTLDB_ACTIVE_1;
 268:Generated_Source\PSoC5/Bootloader.c ****         }
 269:Generated_Source\PSoC5/Bootloader.c ****         else
 270:Generated_Source\PSoC5/Bootloader.c ****         {
 271:Generated_Source\PSoC5/Bootloader.c ****             /* Neither app is active. */
 272:Generated_Source\PSoC5/Bootloader.c ****             result = Bootloader_MD_BTLDB_ACTIVE_NONE;
 273:Generated_Source\PSoC5/Bootloader.c ****         }          
 274:Generated_Source\PSoC5/Bootloader.c ****     }
 275:Generated_Source\PSoC5/Bootloader.c **** 
 276:Generated_Source\PSoC5/Bootloader.c ****     return (result);
 277:Generated_Source\PSoC5/Bootloader.c **** }
 278:Generated_Source\PSoC5/Bootloader.c **** #endif /*((CYDEV_PROJ_TYPE == CYDEV_PROJ_TYPE_LOADABLEANDBOOTLOADER) || \
 279:Generated_Source\PSoC5/Bootloader.c ****           (CYDEV_PROJ_TYPE == CYDEV_PROJ_TYPE_MULTIAPPBOOTLOADER) || \
 280:Generated_Source\PSoC5/Bootloader.c ****           (CYDEV_PROJ_TYPE == CYDEV_PROJ_TYPE_LAUNCHER)) */
 281:Generated_Source\PSoC5/Bootloader.c ****         
 282:Generated_Source\PSoC5/Bootloader.c **** #if (CYDEV_PROJ_TYPE == CYDEV_PROJ_TYPE_LOADABLEANDBOOTLOADER)
 283:Generated_Source\PSoC5/Bootloader.c **** /*******************************************************************************
 284:Generated_Source\PSoC5/Bootloader.c **** * Function Name: Bootloader_Initialize
 285:Generated_Source\PSoC5/Bootloader.c **** ****************************************************************************//**
 286:Generated_Source\PSoC5/Bootloader.c **** * 
 287:Generated_Source\PSoC5/Bootloader.c **** * \brief 
ARM GAS  C:\Users\jobaek\AppData\Local\Temp\ccG7Gfbb.s 			page 7


 288:Generated_Source\PSoC5/Bootloader.c **** *   Used for in-app bootloading. This function updates the global variable 
 289:Generated_Source\PSoC5/Bootloader.c **** *   Bootloader_runningApp with a running application number.
 290:Generated_Source\PSoC5/Bootloader.c **** *
 291:Generated_Source\PSoC5/Bootloader.c **** *   If the running application number is valid (0 or 1), this function also 
 292:Generated_Source\PSoC5/Bootloader.c **** *   sets the global variable Bootloader_initVar that is used to determine 
 293:Generated_Source\PSoC5/Bootloader.c **** *   if the component can process bootloader commands or not.
 294:Generated_Source\PSoC5/Bootloader.c **** *   This function should be called once in the application project after a startup.
 295:Generated_Source\PSoC5/Bootloader.c **** *
 296:Generated_Source\PSoC5/Bootloader.c **** * \return
 297:Generated_Source\PSoC5/Bootloader.c **** *   Global variables: 
 298:Generated_Source\PSoC5/Bootloader.c **** *     - Bootloader_runningApp
 299:Generated_Source\PSoC5/Bootloader.c **** *     - Bootloader_activeApp
 300:Generated_Source\PSoC5/Bootloader.c **** *     - Bootloader_initVar
 301:Generated_Source\PSoC5/Bootloader.c **** *
 302:Generated_Source\PSoC5/Bootloader.c **** * \details 
 303:Generated_Source\PSoC5/Bootloader.c **** *   This API should be called first to be able to capture the active application 
 304:Generated_Source\PSoC5/Bootloader.c **** *   number that is actually the running application number.
 305:Generated_Source\PSoC5/Bootloader.c **** *******************************************************************************/
 306:Generated_Source\PSoC5/Bootloader.c **** void Bootloader_Initialize(void) CYSMALL \
 307:Generated_Source\PSoC5/Bootloader.c ****                                
 308:Generated_Source\PSoC5/Bootloader.c **** {
 309:Generated_Source\PSoC5/Bootloader.c ****     if (Bootloader_BOOTLOADING_NOT_INITIALIZED ==Bootloader_initVar)
 310:Generated_Source\PSoC5/Bootloader.c ****     {
 311:Generated_Source\PSoC5/Bootloader.c ****         Bootloader_activeApp = Bootloader_GetActiveAppFromMetadata();
 312:Generated_Source\PSoC5/Bootloader.c ****         
 313:Generated_Source\PSoC5/Bootloader.c ****         /* Updating with number of active application */    
 314:Generated_Source\PSoC5/Bootloader.c ****         if ((Bootloader_MD_BTLDB_ACTIVE_NONE != Bootloader_activeApp) &&
 315:Generated_Source\PSoC5/Bootloader.c ****             (Bootloader_BOTH_ACTIVE != Bootloader_activeApp))
 316:Generated_Source\PSoC5/Bootloader.c ****         {
 317:Generated_Source\PSoC5/Bootloader.c ****             Bootloader_runningApp = Bootloader_activeApp;
 318:Generated_Source\PSoC5/Bootloader.c ****             
 319:Generated_Source\PSoC5/Bootloader.c ****             /* Bootloader commands are to be processed */
 320:Generated_Source\PSoC5/Bootloader.c ****             Bootloader_initVar = Bootloader_BOOTLADING_INITIALIZED;
 321:Generated_Source\PSoC5/Bootloader.c ****         }
 322:Generated_Source\PSoC5/Bootloader.c ****         else 
 323:Generated_Source\PSoC5/Bootloader.c ****         {
 324:Generated_Source\PSoC5/Bootloader.c ****             Bootloader_runningApp = Bootloader_RUNNING_APPLICATION_UNKNOWN;
 325:Generated_Source\PSoC5/Bootloader.c ****         }
 326:Generated_Source\PSoC5/Bootloader.c ****     }
 327:Generated_Source\PSoC5/Bootloader.c **** }
 328:Generated_Source\PSoC5/Bootloader.c **** 
 329:Generated_Source\PSoC5/Bootloader.c **** /*****************************************************************************
 330:Generated_Source\PSoC5/Bootloader.c **** * Function Name: Bootloader_GetRunningAppStatus
 331:Generated_Source\PSoC5/Bootloader.c **** **************************************************************************//**
 332:Generated_Source\PSoC5/Bootloader.c **** *
 333:Generated_Source\PSoC5/Bootloader.c **** * \brief 
 334:Generated_Source\PSoC5/Bootloader.c **** *   Used for dual-app or in-app bootloader. Returns the value of the global 
 335:Generated_Source\PSoC5/Bootloader.c **** *   variable Bootloader_runningApp. This function should be called only after the 
 336:Generated_Source\PSoC5/Bootloader.c **** *   Bootloader_Initialize() has been called once.
 337:Generated_Source\PSoC5/Bootloader.c **** *
 338:Generated_Source\PSoC5/Bootloader.c **** * \return 
 339:Generated_Source\PSoC5/Bootloader.c **** *   The application number that is currently being executed. Values are 0 or 1; 
 340:Generated_Source\PSoC5/Bootloader.c **** *     other values indicate "not defined".
 341:Generated_Source\PSoC5/Bootloader.c **** *
 342:Generated_Source\PSoC5/Bootloader.c **** *******************************************************************************/
 343:Generated_Source\PSoC5/Bootloader.c **** uint8 Bootloader_GetRunningAppStatus(void) CYSMALL \
 344:Generated_Source\PSoC5/Bootloader.c ****             
ARM GAS  C:\Users\jobaek\AppData\Local\Temp\ccG7Gfbb.s 			page 8


 345:Generated_Source\PSoC5/Bootloader.c **** {  
 346:Generated_Source\PSoC5/Bootloader.c ****     return (Bootloader_runningApp);
 347:Generated_Source\PSoC5/Bootloader.c **** }
 348:Generated_Source\PSoC5/Bootloader.c **** 
 349:Generated_Source\PSoC5/Bootloader.c **** 
 350:Generated_Source\PSoC5/Bootloader.c **** /*******************************************************************************
 351:Generated_Source\PSoC5/Bootloader.c **** * Function Name: Bootloader_GetActiveAppStatus
 352:Generated_Source\PSoC5/Bootloader.c **** ****************************************************************************//**
 353:Generated_Source\PSoC5/Bootloader.c **** *
 354:Generated_Source\PSoC5/Bootloader.c **** * \brief 
 355:Generated_Source\PSoC5/Bootloader.c **** *   Used for dual-app or in-app bootloader. Returns the value of the global 
 356:Generated_Source\PSoC5/Bootloader.c **** *   variable Bootloader_activeApp. This function should be called only after the 
 357:Generated_Source\PSoC5/Bootloader.c **** *   Bootloader_Initialize() has been called once.
 358:Generated_Source\PSoC5/Bootloader.c **** *
 359:Generated_Source\PSoC5/Bootloader.c **** * \return 
 360:Generated_Source\PSoC5/Bootloader.c **** *   The desired application to be executed. Values are 0 or 1; other values 
 361:Generated_Source\PSoC5/Bootloader.c **** *     indicate "not defined".
 362:Generated_Source\PSoC5/Bootloader.c **** *
 363:Generated_Source\PSoC5/Bootloader.c **** *******************************************************************************/
 364:Generated_Source\PSoC5/Bootloader.c **** uint8 Bootloader_GetActiveAppStatus(void) CYSMALL \
 365:Generated_Source\PSoC5/Bootloader.c ****       
 366:Generated_Source\PSoC5/Bootloader.c **** {  
 367:Generated_Source\PSoC5/Bootloader.c ****     /* Read active application number from metadata */
 368:Generated_Source\PSoC5/Bootloader.c ****     Bootloader_activeApp = Bootloader_GetActiveAppFromMetadata();
 369:Generated_Source\PSoC5/Bootloader.c ****     
 370:Generated_Source\PSoC5/Bootloader.c ****     return (Bootloader_activeApp);
 371:Generated_Source\PSoC5/Bootloader.c **** }
 372:Generated_Source\PSoC5/Bootloader.c **** #endif /*(CYDEV_PROJ_TYPE == CYDEV_PROJ_TYPE_LOADABLEANDBOOTLOADER)*/
 373:Generated_Source\PSoC5/Bootloader.c **** 
 374:Generated_Source\PSoC5/Bootloader.c **** #if (CYDEV_PROJ_TYPE != CYDEV_PROJ_TYPE_LAUNCHER)
 375:Generated_Source\PSoC5/Bootloader.c **** /*******************************************************************************
 376:Generated_Source\PSoC5/Bootloader.c **** * Function Name: Bootloader_CalcPacketChecksum
 377:Generated_Source\PSoC5/Bootloader.c **** ****************************************************************************//**
 378:Generated_Source\PSoC5/Bootloader.c **** *  \internal
 379:Generated_Source\PSoC5/Bootloader.c **** *
 380:Generated_Source\PSoC5/Bootloader.c **** *  \brief
 381:Generated_Source\PSoC5/Bootloader.c **** *     This computes a 16-bit checksum for the provided number of bytes contained
 382:Generated_Source\PSoC5/Bootloader.c **** *     in the provided buffer.
 383:Generated_Source\PSoC5/Bootloader.c **** *
 384:Generated_Source\PSoC5/Bootloader.c **** *  \param buffer
 385:Generated_Source\PSoC5/Bootloader.c **** *     The buffer containing the data to compute the checksum.
 386:Generated_Source\PSoC5/Bootloader.c **** *  \param size
 387:Generated_Source\PSoC5/Bootloader.c **** *     The number of bytes in the buffer to compute the checksum.
 388:Generated_Source\PSoC5/Bootloader.c **** *
 389:Generated_Source\PSoC5/Bootloader.c **** *  \return 
 390:Generated_Source\PSoC5/Bootloader.c **** *     A 16-bit checksum for the provided data.
 391:Generated_Source\PSoC5/Bootloader.c **** *
 392:Generated_Source\PSoC5/Bootloader.c **** *  \endinternal
 393:Generated_Source\PSoC5/Bootloader.c **** *******************************************************************************/
 394:Generated_Source\PSoC5/Bootloader.c **** static uint16 Bootloader_CalcPacketChecksum(const uint8 buffer[], uint16 size) \
 395:Generated_Source\PSoC5/Bootloader.c ****                     CYSMALL 
 396:Generated_Source\PSoC5/Bootloader.c **** {
  56              		.loc 1 396 0
  57              		.cfi_startproc
  58              		@ args = 0, pretend = 0, frame = 16
  59              		@ frame_needed = 1, uses_anonymous_args = 0
  60              		@ link register save eliminated.
ARM GAS  C:\Users\jobaek\AppData\Local\Temp\ccG7Gfbb.s 			page 9


  61 0000 80B4     		push	{r7}
  62              		.cfi_def_cfa_offset 4
  63              		.cfi_offset 7, -4
  64 0002 85B0     		sub	sp, sp, #20
  65              		.cfi_def_cfa_offset 24
  66 0004 00AF     		add	r7, sp, #0
  67              		.cfi_def_cfa_register 7
  68 0006 7860     		str	r0, [r7, #4]
  69 0008 0B46     		mov	r3, r1
  70 000a 7B80     		strh	r3, [r7, #2]	@ movhi
 397:Generated_Source\PSoC5/Bootloader.c ****     #if(0u != Bootloader_PACKET_CHECKSUM_CRC)
 398:Generated_Source\PSoC5/Bootloader.c **** 
 399:Generated_Source\PSoC5/Bootloader.c ****         uint16 CYDATA crc = Bootloader_CRC_CCITT_INITIAL_VALUE;
 400:Generated_Source\PSoC5/Bootloader.c ****         uint16 CYDATA tmp;
 401:Generated_Source\PSoC5/Bootloader.c ****         uint8  CYDATA i;
 402:Generated_Source\PSoC5/Bootloader.c ****         uint16 CYDATA tmpIndex = size;
 403:Generated_Source\PSoC5/Bootloader.c **** 
 404:Generated_Source\PSoC5/Bootloader.c ****         if(0u == size)
 405:Generated_Source\PSoC5/Bootloader.c ****         {
 406:Generated_Source\PSoC5/Bootloader.c ****             crc = ~crc;
 407:Generated_Source\PSoC5/Bootloader.c ****         }
 408:Generated_Source\PSoC5/Bootloader.c ****         else
 409:Generated_Source\PSoC5/Bootloader.c ****         {
 410:Generated_Source\PSoC5/Bootloader.c ****             do
 411:Generated_Source\PSoC5/Bootloader.c ****             {
 412:Generated_Source\PSoC5/Bootloader.c ****                 tmp = buffer[tmpIndex - size];
 413:Generated_Source\PSoC5/Bootloader.c **** 
 414:Generated_Source\PSoC5/Bootloader.c ****                 for (i = 0u; i < 8u; i++)
 415:Generated_Source\PSoC5/Bootloader.c ****                 {
 416:Generated_Source\PSoC5/Bootloader.c ****                     if (0u != ((crc & 0x0001u) ^ (tmp & 0x0001u)))
 417:Generated_Source\PSoC5/Bootloader.c ****                     {
 418:Generated_Source\PSoC5/Bootloader.c ****                         crc = (crc >> 1u) ^ Bootloader_CRC_CCITT_POLYNOMIAL;
 419:Generated_Source\PSoC5/Bootloader.c ****                     }
 420:Generated_Source\PSoC5/Bootloader.c ****                     else
 421:Generated_Source\PSoC5/Bootloader.c ****                     {
 422:Generated_Source\PSoC5/Bootloader.c ****                         crc >>= 1u;
 423:Generated_Source\PSoC5/Bootloader.c ****                     }
 424:Generated_Source\PSoC5/Bootloader.c **** 
 425:Generated_Source\PSoC5/Bootloader.c ****                     tmp >>= 1u;
 426:Generated_Source\PSoC5/Bootloader.c ****                 }
 427:Generated_Source\PSoC5/Bootloader.c **** 
 428:Generated_Source\PSoC5/Bootloader.c ****                 size--;
 429:Generated_Source\PSoC5/Bootloader.c ****             }
 430:Generated_Source\PSoC5/Bootloader.c ****             while(0u != size);
 431:Generated_Source\PSoC5/Bootloader.c **** 
 432:Generated_Source\PSoC5/Bootloader.c ****             crc = ~crc;
 433:Generated_Source\PSoC5/Bootloader.c ****             tmp = crc;
 434:Generated_Source\PSoC5/Bootloader.c ****             crc = ( uint16 )(crc << 8u) | (tmp >> 8u);
 435:Generated_Source\PSoC5/Bootloader.c ****         }
 436:Generated_Source\PSoC5/Bootloader.c **** 
 437:Generated_Source\PSoC5/Bootloader.c ****         return(crc);
 438:Generated_Source\PSoC5/Bootloader.c **** 
 439:Generated_Source\PSoC5/Bootloader.c ****     #else
 440:Generated_Source\PSoC5/Bootloader.c **** 
 441:Generated_Source\PSoC5/Bootloader.c ****         uint16 CYDATA sum = 0u;
  71              		.loc 1 441 0
  72 000c 0023     		movs	r3, #0
ARM GAS  C:\Users\jobaek\AppData\Local\Temp\ccG7Gfbb.s 			page 10


  73 000e FB81     		strh	r3, [r7, #14]	@ movhi
 442:Generated_Source\PSoC5/Bootloader.c **** 
 443:Generated_Source\PSoC5/Bootloader.c ****         while (size > 0u)
  74              		.loc 1 443 0
  75 0010 0BE0     		b	.L2
  76              	.L3:
 444:Generated_Source\PSoC5/Bootloader.c ****         {
 445:Generated_Source\PSoC5/Bootloader.c ****             sum += buffer[size - 1u];
  77              		.loc 1 445 0
  78 0012 7B88     		ldrh	r3, [r7, #2]
  79 0014 013B     		subs	r3, r3, #1
  80 0016 7A68     		ldr	r2, [r7, #4]
  81 0018 1344     		add	r3, r3, r2
  82 001a 1B78     		ldrb	r3, [r3]	@ zero_extendqisi2
  83 001c 9AB2     		uxth	r2, r3
  84 001e FB89     		ldrh	r3, [r7, #14]	@ movhi
  85 0020 1344     		add	r3, r3, r2
  86 0022 FB81     		strh	r3, [r7, #14]	@ movhi
 446:Generated_Source\PSoC5/Bootloader.c ****             size--;
  87              		.loc 1 446 0
  88 0024 7B88     		ldrh	r3, [r7, #2]
  89 0026 013B     		subs	r3, r3, #1
  90 0028 7B80     		strh	r3, [r7, #2]	@ movhi
  91              	.L2:
 443:Generated_Source\PSoC5/Bootloader.c ****         {
  92              		.loc 1 443 0
  93 002a 7B88     		ldrh	r3, [r7, #2]
  94 002c 002B     		cmp	r3, #0
  95 002e F0D1     		bne	.L3
 447:Generated_Source\PSoC5/Bootloader.c ****         }
 448:Generated_Source\PSoC5/Bootloader.c **** 
 449:Generated_Source\PSoC5/Bootloader.c ****         return(( uint16 )1u + ( uint16 )(~sum));
  96              		.loc 1 449 0
  97 0030 FB89     		ldrh	r3, [r7, #14]	@ movhi
  98 0032 5B42     		negs	r3, r3
  99 0034 9BB2     		uxth	r3, r3
 450:Generated_Source\PSoC5/Bootloader.c **** 
 451:Generated_Source\PSoC5/Bootloader.c ****     #endif /* (0u != Bootloader_PACKET_CHECKSUM_CRC) */
 452:Generated_Source\PSoC5/Bootloader.c **** }
 100              		.loc 1 452 0
 101 0036 1846     		mov	r0, r3
 102 0038 1437     		adds	r7, r7, #20
 103              		.cfi_def_cfa_offset 4
 104 003a BD46     		mov	sp, r7
 105              		.cfi_def_cfa_register 13
 106              		@ sp needed
 107 003c 80BC     		pop	{r7}
 108              		.cfi_restore 7
 109              		.cfi_def_cfa_offset 0
 110 003e 7047     		bx	lr
 111              		.cfi_endproc
 112              	.LFE63:
 113              		.size	Bootloader_CalcPacketChecksum, .-Bootloader_CalcPacketChecksum
 114              		.section	.text.Bootloader_InitCallback,"ax",%progbits
 115              		.align	2
 116              		.global	Bootloader_InitCallback
 117              		.thumb
ARM GAS  C:\Users\jobaek\AppData\Local\Temp\ccG7Gfbb.s 			page 11


 118              		.thumb_func
 119              		.type	Bootloader_InitCallback, %function
 120              	Bootloader_InitCallback:
 121              	.LFB64:
 453:Generated_Source\PSoC5/Bootloader.c **** 
 454:Generated_Source\PSoC5/Bootloader.c **** #if (!CY_PSOC3)
 455:Generated_Source\PSoC5/Bootloader.c **** /*******************************************************************************
 456:Generated_Source\PSoC5/Bootloader.c **** * Function Name: Bootloader_InitCallback
 457:Generated_Source\PSoC5/Bootloader.c **** ****************************************************************************//**
 458:Generated_Source\PSoC5/Bootloader.c **** *
 459:Generated_Source\PSoC5/Bootloader.c **** * \brief
 460:Generated_Source\PSoC5/Bootloader.c **** *  This function initializes the callback functionality.
 461:Generated_Source\PSoC5/Bootloader.c **** *  
 462:Generated_Source\PSoC5/Bootloader.c **** * \param userCallback
 463:Generated_Source\PSoC5/Bootloader.c **** *  The user's callback function.
 464:Generated_Source\PSoC5/Bootloader.c **** *
 465:Generated_Source\PSoC5/Bootloader.c **** *******************************************************************************/
 466:Generated_Source\PSoC5/Bootloader.c **** void Bootloader_InitCallback(Bootloader_callback_type userCallback) \
 467:Generated_Source\PSoC5/Bootloader.c ****            CYSMALL 
 468:Generated_Source\PSoC5/Bootloader.c **** {
 122              		.loc 1 468 0
 123              		.cfi_startproc
 124              		@ args = 0, pretend = 0, frame = 8
 125              		@ frame_needed = 1, uses_anonymous_args = 0
 126              		@ link register save eliminated.
 127 0000 80B4     		push	{r7}
 128              		.cfi_def_cfa_offset 4
 129              		.cfi_offset 7, -4
 130 0002 83B0     		sub	sp, sp, #12
 131              		.cfi_def_cfa_offset 16
 132 0004 00AF     		add	r7, sp, #0
 133              		.cfi_def_cfa_register 7
 134 0006 7860     		str	r0, [r7, #4]
 469:Generated_Source\PSoC5/Bootloader.c ****     Bootloader_callback = userCallback;
 135              		.loc 1 469 0
 136 0008 034A     		ldr	r2, .L6
 137 000a 7B68     		ldr	r3, [r7, #4]
 138 000c 1360     		str	r3, [r2]
 470:Generated_Source\PSoC5/Bootloader.c **** }
 139              		.loc 1 470 0
 140 000e 00BF     		nop
 141 0010 0C37     		adds	r7, r7, #12
 142              		.cfi_def_cfa_offset 4
 143 0012 BD46     		mov	sp, r7
 144              		.cfi_def_cfa_register 13
 145              		@ sp needed
 146 0014 80BC     		pop	{r7}
 147              		.cfi_restore 7
 148              		.cfi_def_cfa_offset 0
 149 0016 7047     		bx	lr
 150              	.L7:
 151              		.align	2
 152              	.L6:
 153 0018 00000000 		.word	Bootloader_callback
 154              		.cfi_endproc
 155              	.LFE64:
 156              		.size	Bootloader_InitCallback, .-Bootloader_InitCallback
ARM GAS  C:\Users\jobaek\AppData\Local\Temp\ccG7Gfbb.s 			page 12


 157              		.section	.text.Bootloader_Calc8BitSum,"ax",%progbits
 158              		.align	2
 159              		.global	Bootloader_Calc8BitSum
 160              		.thumb
 161              		.thumb_func
 162              		.type	Bootloader_Calc8BitSum, %function
 163              	Bootloader_Calc8BitSum:
 164              	.LFB65:
 471:Generated_Source\PSoC5/Bootloader.c **** #endif /* (!CY_PSOC3) */
 472:Generated_Source\PSoC5/Bootloader.c **** 
 473:Generated_Source\PSoC5/Bootloader.c **** 
 474:Generated_Source\PSoC5/Bootloader.c **** #if (0u != Bootloader_CMD_VERIFY_FLS_ROW_AVAIL)
 475:Generated_Source\PSoC5/Bootloader.c **** /*******************************************************************************
 476:Generated_Source\PSoC5/Bootloader.c **** * Function Name: Bootloader_VerifyRow
 477:Generated_Source\PSoC5/Bootloader.c **** ****************************************************************************//**
 478:Generated_Source\PSoC5/Bootloader.c **** *  \internal
 479:Generated_Source\PSoC5/Bootloader.c **** * 
 480:Generated_Source\PSoC5/Bootloader.c **** *  \brief
 481:Generated_Source\PSoC5/Bootloader.c **** *   This API performs a byte to byte verifying of the flash row against the data 
 482:Generated_Source\PSoC5/Bootloader.c **** *   in the input buffer. 
 483:Generated_Source\PSoC5/Bootloader.c **** *
 484:Generated_Source\PSoC5/Bootloader.c **** *  \param flashStart 
 485:Generated_Source\PSoC5/Bootloader.c **** *        The start address of a row in flash.
 486:Generated_Source\PSoC5/Bootloader.c **** *  \param ramStart 
 487:Generated_Source\PSoC5/Bootloader.c **** *        The start address of corresponding data to compare in the RAM buffer.
 488:Generated_Source\PSoC5/Bootloader.c **** *  \param size 
 489:Generated_Source\PSoC5/Bootloader.c **** *        The data length (common for both arrays).
 490:Generated_Source\PSoC5/Bootloader.c **** *
 491:Generated_Source\PSoC5/Bootloader.c **** *  \return
 492:Generated_Source\PSoC5/Bootloader.c **** *   CYRET_SUCCESS - If all data matches.
 493:Generated_Source\PSoC5/Bootloader.c **** *  \n Bootloader_ERR_VERIFY - If there is any mismatch.
 494:Generated_Source\PSoC5/Bootloader.c **** *
 495:Generated_Source\PSoC5/Bootloader.c **** * \endinternal 
 496:Generated_Source\PSoC5/Bootloader.c **** *******************************************************************************/
 497:Generated_Source\PSoC5/Bootloader.c **** static uint8 Bootloader_VerifyRow(uint32 flashStart, const uint8 ramStart[], uint16 size) \
 498:Generated_Source\PSoC5/Bootloader.c ****                 CYSMALL 
 499:Generated_Source\PSoC5/Bootloader.c **** {
 500:Generated_Source\PSoC5/Bootloader.c ****     uint8 CYDATA result = CYRET_SUCCESS;
 501:Generated_Source\PSoC5/Bootloader.c ****     uint16 CYDATA idx;
 502:Generated_Source\PSoC5/Bootloader.c **** 
 503:Generated_Source\PSoC5/Bootloader.c ****     for(idx = 0u; idx < size; idx++)
 504:Generated_Source\PSoC5/Bootloader.c ****     {
 505:Generated_Source\PSoC5/Bootloader.c ****         if (CY_GET_XTND_REG8((uint8 CYFAR *)(flashStart + idx)) != ramStart[idx])
 506:Generated_Source\PSoC5/Bootloader.c ****         {
 507:Generated_Source\PSoC5/Bootloader.c ****             result = Bootloader_ERR_VERIFY;
 508:Generated_Source\PSoC5/Bootloader.c ****             break;
 509:Generated_Source\PSoC5/Bootloader.c ****         }    
 510:Generated_Source\PSoC5/Bootloader.c ****     }
 511:Generated_Source\PSoC5/Bootloader.c **** 
 512:Generated_Source\PSoC5/Bootloader.c ****     return (result);
 513:Generated_Source\PSoC5/Bootloader.c **** }
 514:Generated_Source\PSoC5/Bootloader.c **** #endif /*(0u != Bootloader_CMD_VERIFY_FLS_ROW_AVAIL)*/
 515:Generated_Source\PSoC5/Bootloader.c **** #endif /*CYDEV_PROJ_TYPE != CYDEV_PROJ_TYPE_LAUNCHER*/
 516:Generated_Source\PSoC5/Bootloader.c **** 
 517:Generated_Source\PSoC5/Bootloader.c **** 
 518:Generated_Source\PSoC5/Bootloader.c **** /*******************************************************************************
 519:Generated_Source\PSoC5/Bootloader.c **** * Function Name: Bootloader_Calc8BitSum
ARM GAS  C:\Users\jobaek\AppData\Local\Temp\ccG7Gfbb.s 			page 13


 520:Generated_Source\PSoC5/Bootloader.c **** ****************************************************************************//**
 521:Generated_Source\PSoC5/Bootloader.c **** *
 522:Generated_Source\PSoC5/Bootloader.c **** * \brief
 523:Generated_Source\PSoC5/Bootloader.c **** *  This computes an 8-bit sum for the provided number of bytes contained in
 524:Generated_Source\PSoC5/Bootloader.c **** *  flash (if baseAddr equals CY_FLASH_BASE) or EEPROM (if baseAddr equals
 525:Generated_Source\PSoC5/Bootloader.c **** *  CY_EEPROM_BASE).
 526:Generated_Source\PSoC5/Bootloader.c **** *
 527:Generated_Source\PSoC5/Bootloader.c **** * \param baseAddr
 528:Generated_Source\PSoC5/Bootloader.c **** *   CY_FLASH_BASE
 529:Generated_Source\PSoC5/Bootloader.c **** *   CY_EEPROM_BASE - applicable only for PSoC 3 / PSoC 5LP devices.
 530:Generated_Source\PSoC5/Bootloader.c **** *
 531:Generated_Source\PSoC5/Bootloader.c **** * \param start
 532:Generated_Source\PSoC5/Bootloader.c **** *     The starting address to start summing data.
 533:Generated_Source\PSoC5/Bootloader.c **** * \param size
 534:Generated_Source\PSoC5/Bootloader.c **** *     The number of bytes to read and compute the sum.
 535:Generated_Source\PSoC5/Bootloader.c **** *
 536:Generated_Source\PSoC5/Bootloader.c **** * \return
 537:Generated_Source\PSoC5/Bootloader.c **** *   An 8-bit sum for the provided data.
 538:Generated_Source\PSoC5/Bootloader.c **** *
 539:Generated_Source\PSoC5/Bootloader.c **** *******************************************************************************/
 540:Generated_Source\PSoC5/Bootloader.c **** uint8 Bootloader_Calc8BitSum(uint32 baseAddr, uint32 start, uint32 size) \
 541:Generated_Source\PSoC5/Bootloader.c ****                 CYSMALL 
 542:Generated_Source\PSoC5/Bootloader.c **** {
 165              		.loc 1 542 0
 166              		.cfi_startproc
 167              		@ args = 0, pretend = 0, frame = 24
 168              		@ frame_needed = 1, uses_anonymous_args = 0
 169 0000 80B5     		push	{r7, lr}
 170              		.cfi_def_cfa_offset 8
 171              		.cfi_offset 7, -8
 172              		.cfi_offset 14, -4
 173 0002 86B0     		sub	sp, sp, #24
 174              		.cfi_def_cfa_offset 32
 175 0004 00AF     		add	r7, sp, #0
 176              		.cfi_def_cfa_register 7
 177 0006 F860     		str	r0, [r7, #12]
 178 0008 B960     		str	r1, [r7, #8]
 179 000a 7A60     		str	r2, [r7, #4]
 543:Generated_Source\PSoC5/Bootloader.c ****     uint8 CYDATA sum = 0u;
 180              		.loc 1 543 0
 181 000c 0023     		movs	r3, #0
 182 000e FB75     		strb	r3, [r7, #23]
 544:Generated_Source\PSoC5/Bootloader.c **** 
 545:Generated_Source\PSoC5/Bootloader.c ****     #if(!CY_PSOC4)
 546:Generated_Source\PSoC5/Bootloader.c ****         CYASSERT((baseAddr == CY_EEPROM_BASE) || (baseAddr == CY_FLASH_BASE));
 183              		.loc 1 546 0
 184 0010 FB68     		ldr	r3, [r7, #12]
 185 0012 0F4A     		ldr	r2, .L13
 186 0014 9342     		cmp	r3, r2
 187 0016 13D0     		beq	.L10
 188              		.loc 1 546 0 is_stmt 0 discriminator 1
 189 0018 FB68     		ldr	r3, [r7, #12]
 190 001a 002B     		cmp	r3, #0
 191 001c 10D0     		beq	.L10
 192              		.loc 1 546 0 discriminator 2
 193 001e 0020     		movs	r0, #0
 194 0020 FFF7FEFF 		bl	CyHalt
ARM GAS  C:\Users\jobaek\AppData\Local\Temp\ccG7Gfbb.s 			page 14


 547:Generated_Source\PSoC5/Bootloader.c ****     #else
 548:Generated_Source\PSoC5/Bootloader.c ****         CYASSERT(baseAddr == CY_FLASH_BASE);
 549:Generated_Source\PSoC5/Bootloader.c ****     #endif  /* (!CY_PSOC4) */
 550:Generated_Source\PSoC5/Bootloader.c **** 
 551:Generated_Source\PSoC5/Bootloader.c ****     while (size > 0u)
 195              		.loc 1 551 0 is_stmt 1 discriminator 2
 196 0024 0CE0     		b	.L10
 197              	.L11:
 552:Generated_Source\PSoC5/Bootloader.c ****     {
 553:Generated_Source\PSoC5/Bootloader.c ****         size--;
 198              		.loc 1 553 0
 199 0026 7B68     		ldr	r3, [r7, #4]
 200 0028 013B     		subs	r3, r3, #1
 201 002a 7B60     		str	r3, [r7, #4]
 554:Generated_Source\PSoC5/Bootloader.c ****         sum += CY_GET_XTND_REG8((uint8 CYFAR *)(baseAddr + start + size));
 202              		.loc 1 554 0
 203 002c FA68     		ldr	r2, [r7, #12]
 204 002e BB68     		ldr	r3, [r7, #8]
 205 0030 1A44     		add	r2, r2, r3
 206 0032 7B68     		ldr	r3, [r7, #4]
 207 0034 1344     		add	r3, r3, r2
 208 0036 1B78     		ldrb	r3, [r3]
 209 0038 DAB2     		uxtb	r2, r3
 210 003a FB7D     		ldrb	r3, [r7, #23]
 211 003c 1344     		add	r3, r3, r2
 212 003e FB75     		strb	r3, [r7, #23]
 213              	.L10:
 551:Generated_Source\PSoC5/Bootloader.c ****     {
 214              		.loc 1 551 0
 215 0040 7B68     		ldr	r3, [r7, #4]
 216 0042 002B     		cmp	r3, #0
 217 0044 EFD1     		bne	.L11
 555:Generated_Source\PSoC5/Bootloader.c ****     }
 556:Generated_Source\PSoC5/Bootloader.c **** 
 557:Generated_Source\PSoC5/Bootloader.c ****     return(sum);
 218              		.loc 1 557 0
 219 0046 FB7D     		ldrb	r3, [r7, #23]	@ zero_extendqisi2
 558:Generated_Source\PSoC5/Bootloader.c **** }
 220              		.loc 1 558 0
 221 0048 1846     		mov	r0, r3
 222 004a 1837     		adds	r7, r7, #24
 223              		.cfi_def_cfa_offset 8
 224 004c BD46     		mov	sp, r7
 225              		.cfi_def_cfa_register 13
 226              		@ sp needed
 227 004e 80BD     		pop	{r7, pc}
 228              	.L14:
 229              		.align	2
 230              	.L13:
 231 0050 00800040 		.word	1073774592
 232              		.cfi_endproc
 233              	.LFE65:
 234              		.size	Bootloader_Calc8BitSum, .-Bootloader_Calc8BitSum
 235              		.section	.text.Bootloader_Start,"ax",%progbits
 236              		.align	2
 237              		.global	Bootloader_Start
 238              		.thumb
ARM GAS  C:\Users\jobaek\AppData\Local\Temp\ccG7Gfbb.s 			page 15


 239              		.thumb_func
 240              		.type	Bootloader_Start, %function
 241              	Bootloader_Start:
 242              	.LFB66:
 559:Generated_Source\PSoC5/Bootloader.c **** 
 560:Generated_Source\PSoC5/Bootloader.c **** 
 561:Generated_Source\PSoC5/Bootloader.c **** #if (CYDEV_PROJ_TYPE == CYDEV_PROJ_TYPE_LAUNCHER)
 562:Generated_Source\PSoC5/Bootloader.c **** #if ((0u != Bootloader_COPIER_AVAIL) && (CY_PSOC4)) 
 563:Generated_Source\PSoC5/Bootloader.c **** /*******************************************************************************
 564:Generated_Source\PSoC5/Bootloader.c **** * Function Name: Bootloader_CopyRow
 565:Generated_Source\PSoC5/Bootloader.c **** ****************************************************************************//**
 566:Generated_Source\PSoC5/Bootloader.c **** * \internal
 567:Generated_Source\PSoC5/Bootloader.c **** *
 568:Generated_Source\PSoC5/Bootloader.c **** * \brief
 569:Generated_Source\PSoC5/Bootloader.c **** *   This function performs copying of a specified row to specified 
 570:Generated_Source\PSoC5/Bootloader.c **** *     location.
 571:Generated_Source\PSoC5/Bootloader.c **** *
 572:Generated_Source\PSoC5/Bootloader.c **** * \param
 573:Generated_Source\PSoC5/Bootloader.c **** *   srcRowNum - The number of a row to copy from.
 574:Generated_Source\PSoC5/Bootloader.c **** * \param             
 575:Generated_Source\PSoC5/Bootloader.c **** *   dstRowNum - The number of a row to be copied to.
 576:Generated_Source\PSoC5/Bootloader.c **** *
 577:Generated_Source\PSoC5/Bootloader.c **** * \return
 578:Generated_Source\PSoC5/Bootloader.c **** *   \n CYRET_SUCCESS - If everything went right. 
 579:Generated_Source\PSoC5/Bootloader.c **** *   \n Otherwise, produce an error code indicating a problem.  
 580:Generated_Source\PSoC5/Bootloader.c **** * 
 581:Generated_Source\PSoC5/Bootloader.c **** * \endinternal
 582:Generated_Source\PSoC5/Bootloader.c **** *******************************************************************************/
 583:Generated_Source\PSoC5/Bootloader.c **** static cystatus Bootloader_CopyRow(uint16 srcRowNum, uint16 dstRowNum) \
 584:Generated_Source\PSoC5/Bootloader.c ****                  CYSMALL 
 585:Generated_Source\PSoC5/Bootloader.c **** {
 586:Generated_Source\PSoC5/Bootloader.c ****     /*Buffer for row copy procedure*/
 587:Generated_Source\PSoC5/Bootloader.c ****     uint8  rowBuffer[CYDEV_FLS_ROW_SIZE];
 588:Generated_Source\PSoC5/Bootloader.c ****     cystatus result = CYRET_SUCCESS;
 589:Generated_Source\PSoC5/Bootloader.c **** 
 590:Generated_Source\PSoC5/Bootloader.c ****     uint32 srcBaseAddr = CYDEV_FLASH_BASE + srcRowNum * CYDEV_FLS_ROW_SIZE;
 591:Generated_Source\PSoC5/Bootloader.c ****     uint16 idx;
 592:Generated_Source\PSoC5/Bootloader.c **** 
 593:Generated_Source\PSoC5/Bootloader.c ****     for(idx = 0u; idx < CYDEV_FLS_ROW_SIZE; idx++)
 594:Generated_Source\PSoC5/Bootloader.c ****     {
 595:Generated_Source\PSoC5/Bootloader.c ****         rowBuffer[idx] = Bootloader_GET_CODE_BYTE(srcBaseAddr + idx);
 596:Generated_Source\PSoC5/Bootloader.c ****     }
 597:Generated_Source\PSoC5/Bootloader.c ****     
 598:Generated_Source\PSoC5/Bootloader.c ****     result = CySysFlashWriteRow((uint16) dstRowNum, rowBuffer);
 599:Generated_Source\PSoC5/Bootloader.c ****     
 600:Generated_Source\PSoC5/Bootloader.c ****     return (result);
 601:Generated_Source\PSoC5/Bootloader.c **** }
 602:Generated_Source\PSoC5/Bootloader.c **** 
 603:Generated_Source\PSoC5/Bootloader.c **** /*******************************************************************************
 604:Generated_Source\PSoC5/Bootloader.c **** * Function Name: Bootloader_Copier
 605:Generated_Source\PSoC5/Bootloader.c **** ****************************************************************************//**
 606:Generated_Source\PSoC5/Bootloader.c **** *  \internal
 607:Generated_Source\PSoC5/Bootloader.c **** *  
 608:Generated_Source\PSoC5/Bootloader.c **** *  \brief
 609:Generated_Source\PSoC5/Bootloader.c **** *    This option is specific for Launcher-Combination architecture only and to 
 610:Generated_Source\PSoC5/Bootloader.c **** *    the case when there is a large communication component like BLE. To save 
 611:Generated_Source\PSoC5/Bootloader.c **** *    flash space for the user application, such a large communication component 
ARM GAS  C:\Users\jobaek\AppData\Local\Temp\ccG7Gfbb.s 			page 16


 612:Generated_Source\PSoC5/Bootloader.c **** *    is present only in the first application (Stack application) and is "shared" 
 613:Generated_Source\PSoC5/Bootloader.c **** *    with the second application (the user's application actually) by "Code 
 614:Generated_Source\PSoC5/Bootloader.c **** *    sharing feature" (See code sharing and BLE Upgradable Stack example project). 
 615:Generated_Source\PSoC5/Bootloader.c **** *
 616:Generated_Source\PSoC5/Bootloader.c **** * \n If this option is enabled and the "need-to-copy" flag is set in the second 
 617:Generated_Source\PSoC5/Bootloader.c **** *    application's metadata, Copier performs copying of a previously saved Stack 
 618:Generated_Source\PSoC5/Bootloader.c **** *    application image from a "temporary location" to the app#1 flash 
 619:Generated_Source\PSoC5/Bootloader.c **** *    space (over the current app#1).
 620:Generated_Source\PSoC5/Bootloader.c **** *   
 621:Generated_Source\PSoC5/Bootloader.c **** * \n Before performing the copying operation the new Stack application image 
 622:Generated_Source\PSoC5/Bootloader.c **** *    should be received and stored at the temporary location by the current 
 623:Generated_Source\PSoC5/Bootloader.c **** *    Stack application. The "need-to-copy" flag should be set in app#2 metadata 
 624:Generated_Source\PSoC5/Bootloader.c **** *    indicating that copying operation is required.
 625:Generated_Source\PSoC5/Bootloader.c **** *
 626:Generated_Source\PSoC5/Bootloader.c **** * \n The temporary location is half of the flash space that left after Launcher 
 627:Generated_Source\PSoC5/Bootloader.c **** *    and 2 metadata rows. This implies that Stack application should fit in 
 628:Generated_Source\PSoC5/Bootloader.c **** *    that half of the flash space. 
 629:Generated_Source\PSoC5/Bootloader.c **** *
 630:Generated_Source\PSoC5/Bootloader.c **** * \n The destination for the copy operation is obtained as the first row after 
 631:Generated_Source\PSoC5/Bootloader.c **** *    Launcher (from app#1 metadata). 
 632:Generated_Source\PSoC5/Bootloader.c **** *
 633:Generated_Source\PSoC5/Bootloader.c **** * \n The source of copy operation is the first row of temporary location that 
 634:Generated_Source\PSoC5/Bootloader.c **** *    is calculated by the following formula: 
 635:Generated_Source\PSoC5/Bootloader.c **** * \n     srcRow = (((CY_FLASH_NUMBER_ROWS - dstRow - metaRows) / 2) + dstRow);
 636:Generated_Source\PSoC5/Bootloader.c **** * \n     where:
 637:Generated_Source\PSoC5/Bootloader.c **** *          - dstRow - the destination's first row (mentioned above);
 638:Generated_Source\PSoC5/Bootloader.c **** *          - CY_FLASH_NUMBER_ROWS - number of all flash rows; 
 639:Generated_Source\PSoC5/Bootloader.c **** *          - metaRows - 2 metadata rows;   
 640:Generated_Source\PSoC5/Bootloader.c **** *
 641:Generated_Source\PSoC5/Bootloader.c **** * \n Copying itself means row-by-row copying of the stored application's image.
 642:Generated_Source\PSoC5/Bootloader.c **** *    If it fails to copy some row, there is a defined number of attempts 
 643:Generated_Source\PSoC5/Bootloader.c **** *    (Bootloader_MAX_ATTEMPTS) to try again. In case of no success, 
 644:Generated_Source\PSoC5/Bootloader.c **** *    a user callback function Launcher_CopierCallback() is called. 
 645:Generated_Source\PSoC5/Bootloader.c **** *    If it is not defined, then the device is going to be halted.
 646:Generated_Source\PSoC5/Bootloader.c **** * 
 647:Generated_Source\PSoC5/Bootloader.c **** * \n After performing the application image copying, in case of success 
 648:Generated_Source\PSoC5/Bootloader.c **** *    the app#2 metadata is copied in the stead of app#1 metadata and then
 649:Generated_Source\PSoC5/Bootloader.c **** *    app#2 metadata is cleared.
 650:Generated_Source\PSoC5/Bootloader.c **** *
 651:Generated_Source\PSoC5/Bootloader.c **** * \n A "need-to-copy" flag is cleared just after performing the app#1 image
 652:Generated_Source\PSoC5/Bootloader.c **** *    copying from the temporary location to avoid another consecutive 
 653:Generated_Source\PSoC5/Bootloader.c **** *    copying operation.
 654:Generated_Source\PSoC5/Bootloader.c **** *   
 655:Generated_Source\PSoC5/Bootloader.c **** * \endinternal 
 656:Generated_Source\PSoC5/Bootloader.c **** *******************************************************************************/
 657:Generated_Source\PSoC5/Bootloader.c **** static void Bootloader_Copier(void) CYSMALL \
 658:Generated_Source\PSoC5/Bootloader.c ****            
 659:Generated_Source\PSoC5/Bootloader.c **** {
 660:Generated_Source\PSoC5/Bootloader.c ****     uint16 idx = 0u;
 661:Generated_Source\PSoC5/Bootloader.c **** 
 662:Generated_Source\PSoC5/Bootloader.c ****     /* Number of attempts to perform copying again */
 663:Generated_Source\PSoC5/Bootloader.c ****     uint8 copierAttempts;
 664:Generated_Source\PSoC5/Bootloader.c ****     
 665:Generated_Source\PSoC5/Bootloader.c ****     /* "need-to-copy" flag from second application metadata */
 666:Generated_Source\PSoC5/Bootloader.c ****     uint8 copyFlag = Bootloader_GetMetadata(Bootloader_GET_BTLDB_COPY_FLAG, Bootloader_MD_BTLDB_ACT
 667:Generated_Source\PSoC5/Bootloader.c **** 
 668:Generated_Source\PSoC5/Bootloader.c ****     /* Buffer to temporary hold metadata before flashing */
ARM GAS  C:\Users\jobaek\AppData\Local\Temp\ccG7Gfbb.s 			page 17


 669:Generated_Source\PSoC5/Bootloader.c ****     uint8 metaBuf[CYDEV_FLS_ROW_SIZE];
 670:Generated_Source\PSoC5/Bootloader.c **** 
 671:Generated_Source\PSoC5/Bootloader.c ****     /* Launcher's last row number */
 672:Generated_Source\PSoC5/Bootloader.c ****     uint16 launcherLastRow = Bootloader_GetMetadata(Bootloader_GET_BTLDR_LAST_ROW, Bootloader_MD_BT
 673:Generated_Source\PSoC5/Bootloader.c **** 
 674:Generated_Source\PSoC5/Bootloader.c ****     /* Calculating destination's start row number (first row of app#1) */
 675:Generated_Source\PSoC5/Bootloader.c ****     uint16 dstRow = launcherLastRow + 1u;
 676:Generated_Source\PSoC5/Bootloader.c ****     
 677:Generated_Source\PSoC5/Bootloader.c ****     /* Calculating the source's/temporary location's start row number */
 678:Generated_Source\PSoC5/Bootloader.c ****     uint16 srcRow = ((((CY_FLASH_NUMBER_ROWS - dstRow - 2u) + 1u) >> 1u) + dstRow); 
 679:Generated_Source\PSoC5/Bootloader.c ****     
 680:Generated_Source\PSoC5/Bootloader.c ****     /* Taking length from app#2's metadata*/
 681:Generated_Source\PSoC5/Bootloader.c ****     uint32 srcLength = Bootloader_GetMetadata(Bootloader_GET_BTLDB_LENGTH, Bootloader_MD_BTLDB_ACTI
 682:Generated_Source\PSoC5/Bootloader.c **** 
 683:Generated_Source\PSoC5/Bootloader.c ****     /* Copy operation status initialization */
 684:Generated_Source\PSoC5/Bootloader.c ****     cystatus copyStatus = CYRET_SUCCESS;
 685:Generated_Source\PSoC5/Bootloader.c ****     
 686:Generated_Source\PSoC5/Bootloader.c ****     /* Calculating number of rows for copying */
 687:Generated_Source\PSoC5/Bootloader.c ****     uint16 numberOfRows = srcLength / CYDEV_FLS_ROW_SIZE;
 688:Generated_Source\PSoC5/Bootloader.c ****     
 689:Generated_Source\PSoC5/Bootloader.c ****     if (0u != (srcLength % CYDEV_FLS_ROW_SIZE))
 690:Generated_Source\PSoC5/Bootloader.c ****     {
 691:Generated_Source\PSoC5/Bootloader.c ****         numberOfRows++;
 692:Generated_Source\PSoC5/Bootloader.c ****     }
 693:Generated_Source\PSoC5/Bootloader.c ****         
 694:Generated_Source\PSoC5/Bootloader.c ****     /*************************************************************************
 695:Generated_Source\PSoC5/Bootloader.c ****     * Copying the number of rows from source (temporary location) to destination.
 696:Generated_Source\PSoC5/Bootloader.c ****     * If the operation is unsuccessful, there will be a few more attempts to
 697:Generated_Source\PSoC5/Bootloader.c ****     * perform the copying operation (a number is defined by Bootloader_MAX_ATTEMPTS)
 698:Generated_Source\PSoC5/Bootloader.c ****     ***************************************************************************/
 699:Generated_Source\PSoC5/Bootloader.c ****     for(idx = 0; idx < numberOfRows; idx++)
 700:Generated_Source\PSoC5/Bootloader.c ****     {
 701:Generated_Source\PSoC5/Bootloader.c ****         copierAttempts = Bootloader_MAX_ATTEMPTS;
 702:Generated_Source\PSoC5/Bootloader.c ****         
 703:Generated_Source\PSoC5/Bootloader.c ****         do 
 704:Generated_Source\PSoC5/Bootloader.c ****         {
 705:Generated_Source\PSoC5/Bootloader.c ****             /* Copying row */
 706:Generated_Source\PSoC5/Bootloader.c ****             copyStatus = Bootloader_CopyRow(srcRow + idx, dstRow + idx);
 707:Generated_Source\PSoC5/Bootloader.c ****             
 708:Generated_Source\PSoC5/Bootloader.c ****             /* Decrementing counter of attempts to repeat copying operation */
 709:Generated_Source\PSoC5/Bootloader.c ****             copierAttempts--;       
 710:Generated_Source\PSoC5/Bootloader.c ****         } while ((CYRET_SUCCESS != copyStatus) && (0u != copierAttempts));
 711:Generated_Source\PSoC5/Bootloader.c **** 
 712:Generated_Source\PSoC5/Bootloader.c ****         
 713:Generated_Source\PSoC5/Bootloader.c ****         /*************************************************************************
 714:Generated_Source\PSoC5/Bootloader.c ****         * If a problem occurs, when a row can't be copied, "CopyFlag" should be
 715:Generated_Source\PSoC5/Bootloader.c ****         * cleared to prevent the recurrent copying that might follow the software reset.        
 716:Generated_Source\PSoC5/Bootloader.c ****         ***************************************************************************/
 717:Generated_Source\PSoC5/Bootloader.c ****         if (CYRET_SUCCESS != copyStatus)
 718:Generated_Source\PSoC5/Bootloader.c ****         {
 719:Generated_Source\PSoC5/Bootloader.c ****             /* Clear copy flag in metadata#1 */
 720:Generated_Source\PSoC5/Bootloader.c ****             Bootloader_SetFlashByte(Bootloader_MD_BTLDB_COPY_FLAG_OFFSET(Bootloader_MD_BTLDB_ACTIVE
 721:Generated_Source\PSoC5/Bootloader.c ****                                          (copyFlag & (~Bootloader_NEED_TO_COPY_SET_BIT)));
 722:Generated_Source\PSoC5/Bootloader.c ****                 
 723:Generated_Source\PSoC5/Bootloader.c ****             /* Callback macro definition */
 724:Generated_Source\PSoC5/Bootloader.c ****             #if (0u != LAUNCHER_COPIER_CALLBACK)
 725:Generated_Source\PSoC5/Bootloader.c ****                 Bootloader_CopierCallback();
ARM GAS  C:\Users\jobaek\AppData\Local\Temp\ccG7Gfbb.s 			page 18


 726:Generated_Source\PSoC5/Bootloader.c ****             #endif /* 0u != LAUNCHER_COPIER_CALLBACK */ 
 727:Generated_Source\PSoC5/Bootloader.c ****             
 728:Generated_Source\PSoC5/Bootloader.c ****             /*************************************************************************
 729:Generated_Source\PSoC5/Bootloader.c ****             * If the copying operation was unsuccessful after certain number of attempts
 730:Generated_Source\PSoC5/Bootloader.c ****             * and Bootloader_CopierCallback() is either undefined or returns, then the
 731:Generated_Source\PSoC5/Bootloader.c ****             * device should be halted.
 732:Generated_Source\PSoC5/Bootloader.c ****             *************************************************************************/
 733:Generated_Source\PSoC5/Bootloader.c ****             CyHalt(0x00u);
 734:Generated_Source\PSoC5/Bootloader.c ****         }
 735:Generated_Source\PSoC5/Bootloader.c ****     }    
 736:Generated_Source\PSoC5/Bootloader.c ****     
 737:Generated_Source\PSoC5/Bootloader.c ****     /* Copy metadata app#2 -> app#1*/
 738:Generated_Source\PSoC5/Bootloader.c ****     if (CYRET_SUCCESS == copyStatus)
 739:Generated_Source\PSoC5/Bootloader.c ****     {
 740:Generated_Source\PSoC5/Bootloader.c ****         /******************************************************************************
 741:Generated_Source\PSoC5/Bootloader.c ****         *                               Metadata#1 update             
 742:Generated_Source\PSoC5/Bootloader.c ****         ******************************************************************************/
 743:Generated_Source\PSoC5/Bootloader.c ****         /* Getting start address of metadata #2 */
 744:Generated_Source\PSoC5/Bootloader.c ****         uint32 metaStartAddr = Bootloader_MD_BASE_ADDR(Bootloader_MD_BTLDB_ACTIVE_1) + 
 745:Generated_Source\PSoC5/Bootloader.c ****                                Bootloader_MD_SIZEOF - CYDEV_FLS_ROW_SIZE; 
 746:Generated_Source\PSoC5/Bootloader.c ****         
 747:Generated_Source\PSoC5/Bootloader.c ****         /* Read all data from metadata #2 */
 748:Generated_Source\PSoC5/Bootloader.c ****         for (idx = 0u; idx < CYDEV_FLS_ROW_SIZE; idx++)
 749:Generated_Source\PSoC5/Bootloader.c ****         {
 750:Generated_Source\PSoC5/Bootloader.c ****             metaBuf[idx] = Bootloader_GET_CODE_BYTE(metaStartAddr + idx);
 751:Generated_Source\PSoC5/Bootloader.c ****         }
 752:Generated_Source\PSoC5/Bootloader.c ****         
 753:Generated_Source\PSoC5/Bootloader.c ****         /* Setting 'Copier available' flag (copyFlag field) in buffer to be stored in metadata#1 */
 754:Generated_Source\PSoC5/Bootloader.c ****         metaBuf[Bootloader_MD_BUFFER_START_OFFSET + Bootloader_MD_COPY_FLAG_BYTE_OFFSET] = Bootload
 755:Generated_Source\PSoC5/Bootloader.c **** 
 756:Generated_Source\PSoC5/Bootloader.c ****         /* Set active app#1 */
 757:Generated_Source\PSoC5/Bootloader.c ****         Bootloader_activeApp = Bootloader_MD_BTLDB_ACTIVE_0;
 758:Generated_Source\PSoC5/Bootloader.c ****         
 759:Generated_Source\PSoC5/Bootloader.c ****         /* Setting app#1 as active application in buffer to be stored in metadata#1 */
 760:Generated_Source\PSoC5/Bootloader.c ****         metaBuf[Bootloader_MD_BUFFER_START_OFFSET + Bootloader_MD_ACTIVE_APP_BYTE_OFFSET] = 0x01u; 
 761:Generated_Source\PSoC5/Bootloader.c **** 
 762:Generated_Source\PSoC5/Bootloader.c ****         /* Setting app#1 as valid for 'Fast validation' to be stored in metadata#1 */
 763:Generated_Source\PSoC5/Bootloader.c ****         metaBuf[Bootloader_MD_BUFFER_START_OFFSET + Bootloader_MD_FAST_VALID_BYTE_OFFSET] = 0x01u; 
 764:Generated_Source\PSoC5/Bootloader.c **** 
 765:Generated_Source\PSoC5/Bootloader.c ****         /* Update metadata#1 in flash */
 766:Generated_Source\PSoC5/Bootloader.c ****         copyStatus = CySysFlashWriteRow((uint16) (CY_FLASH_NUMBER_ROWS - 1u), metaBuf);  
 767:Generated_Source\PSoC5/Bootloader.c **** 
 768:Generated_Source\PSoC5/Bootloader.c ****         /******************************************************************************
 769:Generated_Source\PSoC5/Bootloader.c ****         *                               Metadata#2 update  
 770:Generated_Source\PSoC5/Bootloader.c ****         * Clear the whole buffer for metadata#2, which will make it invalid. 
 771:Generated_Source\PSoC5/Bootloader.c ****         * The 'Need-to-copy' flag will be cleared and app#2 will be set as non-active. 
 772:Generated_Source\PSoC5/Bootloader.c ****         *******************************************************************************/
 773:Generated_Source\PSoC5/Bootloader.c ****         (void) memset(&metaBuf, 0x00u, sizeof(metaBuf));
 774:Generated_Source\PSoC5/Bootloader.c ****         
 775:Generated_Source\PSoC5/Bootloader.c ****         /* Updating metadata#2 in flash */
 776:Generated_Source\PSoC5/Bootloader.c ****         copyStatus |= CySysFlashWriteRow((uint16) (CY_FLASH_NUMBER_ROWS - 2u), metaBuf);          
 777:Generated_Source\PSoC5/Bootloader.c ****     }
 778:Generated_Source\PSoC5/Bootloader.c ****     
 779:Generated_Source\PSoC5/Bootloader.c ****     if (CYRET_SUCCESS == copyStatus)
 780:Generated_Source\PSoC5/Bootloader.c ****     {
 781:Generated_Source\PSoC5/Bootloader.c ****         /* Schedule*/
 782:Generated_Source\PSoC5/Bootloader.c ****         Bootloader_SET_RUN_TYPE(Bootloader_SCHEDULE_BTLDB);
ARM GAS  C:\Users\jobaek\AppData\Local\Temp\ccG7Gfbb.s 			page 19


 783:Generated_Source\PSoC5/Bootloader.c **** 
 784:Generated_Source\PSoC5/Bootloader.c ****         /* Software reset */
 785:Generated_Source\PSoC5/Bootloader.c ****         CySoftwareReset();
 786:Generated_Source\PSoC5/Bootloader.c ****     }
 787:Generated_Source\PSoC5/Bootloader.c ****     else
 788:Generated_Source\PSoC5/Bootloader.c ****     {
 789:Generated_Source\PSoC5/Bootloader.c ****         /* Halt device */
 790:Generated_Source\PSoC5/Bootloader.c ****         CyHalt(0x00u);
 791:Generated_Source\PSoC5/Bootloader.c ****     }
 792:Generated_Source\PSoC5/Bootloader.c **** }
 793:Generated_Source\PSoC5/Bootloader.c **** #endif /*(0u != Bootloader_COPIER_AVAIL) && (CY_PSOC4)*/
 794:Generated_Source\PSoC5/Bootloader.c **** #endif /*(CYDEV_PROJ_TYPE == CYDEV_PROJ_TYPE_LAUNCHER)*/
 795:Generated_Source\PSoC5/Bootloader.c **** 
 796:Generated_Source\PSoC5/Bootloader.c **** 
 797:Generated_Source\PSoC5/Bootloader.c **** /*******************************************************************************
 798:Generated_Source\PSoC5/Bootloader.c **** * Function Name: Bootloader_Start
 799:Generated_Source\PSoC5/Bootloader.c **** ****************************************************************************//**
 800:Generated_Source\PSoC5/Bootloader.c **** * \brief
 801:Generated_Source\PSoC5/Bootloader.c **** *  This function is called to execute the following algorithm:
 802:Generated_Source\PSoC5/Bootloader.c **** *
 803:Generated_Source\PSoC5/Bootloader.c **** * -    Validate the Bootloadable application for the Classic Single-app Bootloader or 
 804:Generated_Source\PSoC5/Bootloader.c **** *   both Bootloadable/Combination applications for the Classic Dual-app Bootloader/
 805:Generated_Source\PSoC5/Bootloader.c **** *   Launch-only Bootloader (Launcher for short) respectively.
 806:Generated_Source\PSoC5/Bootloader.c **** *  
 807:Generated_Source\PSoC5/Bootloader.c **** * -    For the Classic Single-app Bootloader: if the Bootloadable application is valid, 
 808:Generated_Source\PSoC5/Bootloader.c **** *   then the flow switches to it after a software reset. Otherwise it stays in 
 809:Generated_Source\PSoC5/Bootloader.c **** *   the Bootloader, waiting for a command(s) from the host.
 810:Generated_Source\PSoC5/Bootloader.c **** * 
 811:Generated_Source\PSoC5/Bootloader.c **** * -    For the Classic Dual-app Bootloader: the flow acts according to the switching table 
 812:Generated_Source\PSoC5/Bootloader.c **** *  (see in the code below) and enabled/disabled options (for instance, auto-switching).
 813:Generated_Source\PSoC5/Bootloader.c **** *   NOTE If the valid Bootloadable application is identified, then the control is passed 
 814:Generated_Source\PSoC5/Bootloader.c **** *   to it after a software reset. Otherwise it stays in the Classic Dual-app Bootloader 
 815:Generated_Source\PSoC5/Bootloader.c **** *   waiting for a command(s) from the host.
 816:Generated_Source\PSoC5/Bootloader.c **** * 
 817:Generated_Source\PSoC5/Bootloader.c **** * -    For the Launcher: the flow acts according to the switching table (see below) and 
 818:Generated_Source\PSoC5/Bootloader.c **** *   enabled/disabled options. NOTE If the valid Combination application is identified, then 
 819:Generated_Source\PSoC5/Bootloader.c **** *   the control is passed to it after a software reset. Otherwise it stays in the Launcher 
 820:Generated_Source\PSoC5/Bootloader.c **** *   forever.
 821:Generated_Source\PSoC5/Bootloader.c **** * 
 822:Generated_Source\PSoC5/Bootloader.c **** * -    Validate the Bootloader/Launcher application(s) (design-time configurable, Bootloader 
 823:Generated_Source\PSoC5/Bootloader.c **** *   application validation option of the component customizer).
 824:Generated_Source\PSoC5/Bootloader.c **** * 
 825:Generated_Source\PSoC5/Bootloader.c **** * -    Run a communication subroutine (design-time configurable, the Wait for command 
 826:Generated_Source\PSoC5/Bootloader.c **** *   option of the component customizer). NOTE This is NOT applicable for the Launcher.
 827:Generated_Source\PSoC5/Bootloader.c **** *
 828:Generated_Source\PSoC5/Bootloader.c **** * -    Schedule the Bootloadable and reset the device.
 829:Generated_Source\PSoC5/Bootloader.c **** *
 830:Generated_Source\PSoC5/Bootloader.c **** *  \ref page_switching_logic
 831:Generated_Source\PSoC5/Bootloader.c **** *
 832:Generated_Source\PSoC5/Bootloader.c **** * \return
 833:Generated_Source\PSoC5/Bootloader.c **** *  This method will never return. It will either load a new application and
 834:Generated_Source\PSoC5/Bootloader.c **** *  reset the device or jump directly to the existing application. The CPU is
 835:Generated_Source\PSoC5/Bootloader.c **** *  halted, if the validation fails when the "Bootloader application validation" 
 836:Generated_Source\PSoC5/Bootloader.c **** *  option is enabled.
 837:Generated_Source\PSoC5/Bootloader.c **** *  PSoC 3/PSoC 5: The CPU is halted if flash initialization fails.
 838:Generated_Source\PSoC5/Bootloader.c **** *
 839:Generated_Source\PSoC5/Bootloader.c **** * \details
ARM GAS  C:\Users\jobaek\AppData\Local\Temp\ccG7Gfbb.s 			page 20


 840:Generated_Source\PSoC5/Bootloader.c **** *  If the "Bootloader application validation" option is enabled and this method
 841:Generated_Source\PSoC5/Bootloader.c **** *  determines that the Bootloader application itself is corrupt, this method
 842:Generated_Source\PSoC5/Bootloader.c **** *  will not return, instead it will simply hang the application.   
 843:Generated_Source\PSoC5/Bootloader.c **** *******************************************************************************/
 844:Generated_Source\PSoC5/Bootloader.c **** void Bootloader_Start(void) CYSMALL 
 845:Generated_Source\PSoC5/Bootloader.c **** {
 243              		.loc 1 845 0
 244              		.cfi_startproc
 245              		@ args = 0, pretend = 0, frame = 8
 246              		@ frame_needed = 1, uses_anonymous_args = 0
 247 0000 80B5     		push	{r7, lr}
 248              		.cfi_def_cfa_offset 8
 249              		.cfi_offset 7, -8
 250              		.cfi_offset 14, -4
 251 0002 82B0     		sub	sp, sp, #8
 252              		.cfi_def_cfa_offset 16
 253 0004 00AF     		add	r7, sp, #0
 254              		.cfi_def_cfa_register 7
 846:Generated_Source\PSoC5/Bootloader.c **** 
 847:Generated_Source\PSoC5/Bootloader.c **** #if (CYDEV_PROJ_TYPE != CYDEV_PROJ_TYPE_LOADABLEANDBOOTLOADER)
 848:Generated_Source\PSoC5/Bootloader.c **** 
 849:Generated_Source\PSoC5/Bootloader.c ****     #if(0u != Bootloader_DUAL_APP_BOOTLOADER)
 850:Generated_Source\PSoC5/Bootloader.c ****         cystatus app0Status = CYRET_BAD_DATA;
 851:Generated_Source\PSoC5/Bootloader.c ****         cystatus app1Status = CYRET_BAD_DATA;  
 852:Generated_Source\PSoC5/Bootloader.c ****     #endif /*0u != Bootloader_DUAL_APP_BOOTLOADER*/
 853:Generated_Source\PSoC5/Bootloader.c ****     
 854:Generated_Source\PSoC5/Bootloader.c ****     cystatus validApp  = CYRET_BAD_DATA;
 255              		.loc 1 854 0
 256 0006 0623     		movs	r3, #6
 257 0008 7B60     		str	r3, [r7, #4]
 855:Generated_Source\PSoC5/Bootloader.c **** 
 856:Generated_Source\PSoC5/Bootloader.c ****     #if(0u != Bootloader_BOOTLOADER_APP_VALIDATION)
 857:Generated_Source\PSoC5/Bootloader.c ****         uint8 CYDATA calcedChecksum;
 858:Generated_Source\PSoC5/Bootloader.c ****     #endif    /* (0u != Bootloader_BOOTLOADER_APP_VALIDATION) */
 859:Generated_Source\PSoC5/Bootloader.c **** 
 860:Generated_Source\PSoC5/Bootloader.c ****     #if(!CY_PSOC4)
 861:Generated_Source\PSoC5/Bootloader.c ****         #if(0u != Bootloader_FAST_APP_VALIDATION)
 862:Generated_Source\PSoC5/Bootloader.c ****             /* Initialize flash subsystem for non-PSoC 4 devices */
 863:Generated_Source\PSoC5/Bootloader.c ****             if (CYRET_SUCCESS != CySetTemp())
 864:Generated_Source\PSoC5/Bootloader.c ****             {
 865:Generated_Source\PSoC5/Bootloader.c ****                 CyHalt(0x00u);
 866:Generated_Source\PSoC5/Bootloader.c ****             }
 867:Generated_Source\PSoC5/Bootloader.c **** 
 868:Generated_Source\PSoC5/Bootloader.c ****             #if !defined(CY_BOOT_VERSION)
 869:Generated_Source\PSoC5/Bootloader.c ****                 /* Not required with cy_boot 4.20 */
 870:Generated_Source\PSoC5/Bootloader.c ****                 if (CYRET_SUCCESS != CySetFlashEEBuffer(Bootloader_flashBuffer))
 871:Generated_Source\PSoC5/Bootloader.c ****                 {
 872:Generated_Source\PSoC5/Bootloader.c ****                     CyHalt(0x00u);
 873:Generated_Source\PSoC5/Bootloader.c ****                 }
 874:Generated_Source\PSoC5/Bootloader.c **** 
 875:Generated_Source\PSoC5/Bootloader.c ****                 uint8 CYXDATA Bootloader_flashBuffer[Bootloader_FROW_SIZE];
 876:Generated_Source\PSoC5/Bootloader.c ****             #endif /* !defined(CY_BOOT_VERSION) */
 877:Generated_Source\PSoC5/Bootloader.c ****         #endif  /* (0u != Bootloader_FAST_APP_VALIDATION) */
 878:Generated_Source\PSoC5/Bootloader.c ****     #endif  /* (!CY_PSOC4) */
 879:Generated_Source\PSoC5/Bootloader.c **** 
 880:Generated_Source\PSoC5/Bootloader.c ****     #if (CYDEV_PROJ_TYPE == CYDEV_PROJ_TYPE_LAUNCHER) 
 881:Generated_Source\PSoC5/Bootloader.c ****     #if ((0u != Bootloader_COPIER_AVAIL) && (CY_PSOC4))
ARM GAS  C:\Users\jobaek\AppData\Local\Temp\ccG7Gfbb.s 			page 21


 882:Generated_Source\PSoC5/Bootloader.c ****         /* Checking "need-to-copy" flag in metadata#1. If it is set, then copy operation is require
 883:Generated_Source\PSoC5/Bootloader.c ****         uint8 needToCopyFlag = Bootloader_GetMetadata(Bootloader_GET_BTLDB_COPY_FLAG, 
 884:Generated_Source\PSoC5/Bootloader.c ****                                                         Bootloader_MD_BTLDB_ACTIVE_1);             
 885:Generated_Source\PSoC5/Bootloader.c ****         
 886:Generated_Source\PSoC5/Bootloader.c ****         /* Checking "Need to copy" flag in metadata#1 */
 887:Generated_Source\PSoC5/Bootloader.c ****         if (0u != (needToCopyFlag & Bootloader_NEED_TO_COPY_MASK))
 888:Generated_Source\PSoC5/Bootloader.c ****         {
 889:Generated_Source\PSoC5/Bootloader.c ****             /* Note that this function never returns */
 890:Generated_Source\PSoC5/Bootloader.c ****             Bootloader_Copier();
 891:Generated_Source\PSoC5/Bootloader.c ****         }
 892:Generated_Source\PSoC5/Bootloader.c ****     #endif  /* (CYDEV_PROJ_TYPE == CYDEV_PROJ_TYPE_LAUNCHER) */
 893:Generated_Source\PSoC5/Bootloader.c ****     #endif  /* (0u != Bootloader_COPIER_AVAIL) && (CY_PSOC4)*/
 894:Generated_Source\PSoC5/Bootloader.c ****         
 895:Generated_Source\PSoC5/Bootloader.c ****     /* Identify active Bootloadable/Combination application */
 896:Generated_Source\PSoC5/Bootloader.c ****     #if (0u != Bootloader_DUAL_APP_BOOTLOADER)
 897:Generated_Source\PSoC5/Bootloader.c ****         app0Status = Bootloader_ValidateBootloadable(Bootloader_MD_BTLDB_ACTIVE_0);
 898:Generated_Source\PSoC5/Bootloader.c ****         app1Status = Bootloader_ValidateBootloadable(Bootloader_MD_BTLDB_ACTIVE_1);  
 899:Generated_Source\PSoC5/Bootloader.c **** 
 900:Generated_Source\PSoC5/Bootloader.c ****         /* Assumes no active Bootloadable application. Bootloader is active. */
 901:Generated_Source\PSoC5/Bootloader.c ****         Bootloader_activeApp = Bootloader_MD_BTLDB_ACTIVE_NONE;
 902:Generated_Source\PSoC5/Bootloader.c **** 
 903:Generated_Source\PSoC5/Bootloader.c ****         /* Bootloadable app#1 is active */
 904:Generated_Source\PSoC5/Bootloader.c ****         if(Bootloader_GetMetadata(Bootloader_GET_BTLDB_ACTIVE, Bootloader_MD_BTLDB_ACTIVE_0) == \
 905:Generated_Source\PSoC5/Bootloader.c ****                                                                            Bootloader_MD_BTLDB_IS_A
 906:Generated_Source\PSoC5/Bootloader.c ****         {
 907:Generated_Source\PSoC5/Bootloader.c ****             /**************************************************************************************
 908:Generated_Source\PSoC5/Bootloader.c ****             * -------------------------------------------------------------------------------------
 909:Generated_Source\PSoC5/Bootloader.c ****             * |      |      app#1     |      app#2     |        Classic Dual-app       |     Launch
 910:Generated_Source\PSoC5/Bootloader.c ****             * | Case |---------------------------------|          Bootloader           |           
 911:Generated_Source\PSoC5/Bootloader.c ****             * |      | Active | Valid | Active | Valid |                               |           
 912:Generated_Source\PSoC5/Bootloader.c ****             * |------------------------------------------------------------------------------------
 913:Generated_Source\PSoC5/Bootloader.c ****             * |  9   |    1   |   0   |   0    |   0   | Bootloader                    | Launcher  
 914:Generated_Source\PSoC5/Bootloader.c ****             * |  10  |    1   |   0   |   0    |   1   | app#2, except if auto-app     | app#2     
 915:Generated_Source\PSoC5/Bootloader.c ****             * |      |        |       |        |       | switching is disabled, then   |           
 916:Generated_Source\PSoC5/Bootloader.c ****             * |      |        |       |        |       | stay in Bootloader            |           
 917:Generated_Source\PSoC5/Bootloader.c ****             * |  11  |    1   |   0   |   1    |   0   | Bootloader                    | Launcher  
 918:Generated_Source\PSoC5/Bootloader.c ****             * |  12  |    1   |   0   |   1    |   1   | app#2                         | app#2     
 919:Generated_Source\PSoC5/Bootloader.c ****             * |  13  |    1   |   1   |   0    |   0   | app#1                         | app#1     
 920:Generated_Source\PSoC5/Bootloader.c ****             * |  14  |    1   |   1   |   0    |   1   | app#1                         | app#1     
 921:Generated_Source\PSoC5/Bootloader.c ****             * |  15  |    1   |   1   |   1    |   0   | app#1                         | app#1     
 922:Generated_Source\PSoC5/Bootloader.c ****             * |  16  |    1   |   1   |   1    |   1   | app#1                         | app#1     
 923:Generated_Source\PSoC5/Bootloader.c ****             * -------------------------------------------------------------------------------------
 924:Generated_Source\PSoC5/Bootloader.c ****             ***************************************************************************************
 925:Generated_Source\PSoC5/Bootloader.c ****             if (CYRET_SUCCESS == app0Status)
 926:Generated_Source\PSoC5/Bootloader.c ****             {
 927:Generated_Source\PSoC5/Bootloader.c ****                 /* Cases # 13,  14, 15, and 16 */
 928:Generated_Source\PSoC5/Bootloader.c ****                 Bootloader_activeApp = Bootloader_MD_BTLDB_ACTIVE_0;
 929:Generated_Source\PSoC5/Bootloader.c ****                 validApp = CYRET_SUCCESS;
 930:Generated_Source\PSoC5/Bootloader.c ****             }
 931:Generated_Source\PSoC5/Bootloader.c ****             else /*Bootloadable app#1 is not valid*/
 932:Generated_Source\PSoC5/Bootloader.c ****             {
 933:Generated_Source\PSoC5/Bootloader.c ****                 #if (((1u == Bootloader_AUTO_SWITCHING_AVAIL) &&  \
 934:Generated_Source\PSoC5/Bootloader.c ****                       (CYDEV_PROJ_TYPE == CYDEV_PROJ_TYPE_MULTIAPPBOOTLOADER)) || \
 935:Generated_Source\PSoC5/Bootloader.c ****                       (CYDEV_PROJ_TYPE == CYDEV_PROJ_TYPE_LAUNCHER)) 
 936:Generated_Source\PSoC5/Bootloader.c ****                 if (CYRET_SUCCESS == app1Status )
 937:Generated_Source\PSoC5/Bootloader.c ****                 {
 938:Generated_Source\PSoC5/Bootloader.c ****                     /* Cases # 10 and 12 */
ARM GAS  C:\Users\jobaek\AppData\Local\Temp\ccG7Gfbb.s 			page 22


 939:Generated_Source\PSoC5/Bootloader.c ****                     Bootloader_activeApp = Bootloader_MD_BTLDB_ACTIVE_1;
 940:Generated_Source\PSoC5/Bootloader.c ****                     validApp = CYRET_SUCCESS;
 941:Generated_Source\PSoC5/Bootloader.c ****                 }
 942:Generated_Source\PSoC5/Bootloader.c ****                 #endif /*((1u == Bootloader_AUTO_SWITCHING_AVAIL) && 
 943:Generated_Source\PSoC5/Bootloader.c ****                           (CYDEV_PROJ_TYPE == CYDEV_PROJ_TYPE_MULTIAPPBOOTLOADER)) || 
 944:Generated_Source\PSoC5/Bootloader.c ****                           (CYDEV_PROJ_TYPE == CYDEV_PROJ_TYPE_LAUNCHER)*/
 945:Generated_Source\PSoC5/Bootloader.c ****             }
 946:Generated_Source\PSoC5/Bootloader.c ****         }
 947:Generated_Source\PSoC5/Bootloader.c **** 
 948:Generated_Source\PSoC5/Bootloader.c ****         /*  Active Bootloadable application is not identified */
 949:Generated_Source\PSoC5/Bootloader.c ****         if(Bootloader_activeApp == Bootloader_MD_BTLDB_ACTIVE_NONE)
 950:Generated_Source\PSoC5/Bootloader.c ****         {
 951:Generated_Source\PSoC5/Bootloader.c ****             /**************************************************************************************
 952:Generated_Source\PSoC5/Bootloader.c ****             * -------------------------------------------------------------------------------------
 953:Generated_Source\PSoC5/Bootloader.c ****             * |      |       app#1    |       app#2    |        Classic Dual-app       |     Launch
 954:Generated_Source\PSoC5/Bootloader.c ****             * | Case |---------------------------------|          Bootloader           |           
 955:Generated_Source\PSoC5/Bootloader.c ****             * |      | Active | Valid | Active | Valid |                               |           
 956:Generated_Source\PSoC5/Bootloader.c ****             * |------|-----------------------------------------------------------------------------
 957:Generated_Source\PSoC5/Bootloader.c ****             * |  1   |    0   |   0   |   0    |   0   | Bootloader                    | Launcher  
 958:Generated_Source\PSoC5/Bootloader.c ****             * |  2   |    0   |   0   |   0    |   1   | Bootloader                    | app#2     
 959:Generated_Source\PSoC5/Bootloader.c ****             * |  3   |    0   |   0   |   1    |   0   | Bootloader                    | Launcher  
 960:Generated_Source\PSoC5/Bootloader.c ****             * |  4   |    0   |   0   |   1    |   1   | app#2                         | app#2     
 961:Generated_Source\PSoC5/Bootloader.c ****             * |  5   |    0   |   1   |   0    |   0   | Bootloader                    | app#1     
 962:Generated_Source\PSoC5/Bootloader.c ****             * |  6   |    0   |   1   |   0    |   1   | Bootloader                    | app#1     
 963:Generated_Source\PSoC5/Bootloader.c ****             * |  7   |    0   |   1   |   1    |   0   | app#1, except if auto-app     | app#1     
 964:Generated_Source\PSoC5/Bootloader.c ****             * |      |        |       |        |       | switching is disabled, then   |           
 965:Generated_Source\PSoC5/Bootloader.c ****             * |      |        |       |        |       | stay in Bootloader            |           
 966:Generated_Source\PSoC5/Bootloader.c ****             * |  8   |    0   |   1   |   1    |   1   | app#2                         | app#2     
 967:Generated_Source\PSoC5/Bootloader.c ****             * -------------------------------------------------------------------------------------
 968:Generated_Source\PSoC5/Bootloader.c ****             ***************************************************************************************
 969:Generated_Source\PSoC5/Bootloader.c ****             if (Bootloader_GetMetadata(Bootloader_GET_BTLDB_ACTIVE, 1u) ==
 970:Generated_Source\PSoC5/Bootloader.c ****                     Bootloader_MD_BTLDB_IS_ACTIVE)
 971:Generated_Source\PSoC5/Bootloader.c ****             {
 972:Generated_Source\PSoC5/Bootloader.c ****                 /* Cases # 3, 4, 7, and 8 */
 973:Generated_Source\PSoC5/Bootloader.c ****                 if (CYRET_SUCCESS == app1Status)
 974:Generated_Source\PSoC5/Bootloader.c ****                 {
 975:Generated_Source\PSoC5/Bootloader.c ****                     /* Cases # 4 and 8 */
 976:Generated_Source\PSoC5/Bootloader.c ****                     Bootloader_activeApp = Bootloader_MD_BTLDB_ACTIVE_1;
 977:Generated_Source\PSoC5/Bootloader.c ****                     validApp = CYRET_SUCCESS;
 978:Generated_Source\PSoC5/Bootloader.c ****                 }
 979:Generated_Source\PSoC5/Bootloader.c ****                 else
 980:Generated_Source\PSoC5/Bootloader.c ****                 {
 981:Generated_Source\PSoC5/Bootloader.c ****                  #if (((1u == Bootloader_AUTO_SWITCHING_AVAIL) && \
 982:Generated_Source\PSoC5/Bootloader.c ****                        (CYDEV_PROJ_TYPE == CYDEV_PROJ_TYPE_MULTIAPPBOOTLOADER)) \
 983:Generated_Source\PSoC5/Bootloader.c ****                     || (CYDEV_PROJ_TYPE == CYDEV_PROJ_TYPE_LAUNCHER)) 
 984:Generated_Source\PSoC5/Bootloader.c ****                     if (CYRET_SUCCESS == app0Status)
 985:Generated_Source\PSoC5/Bootloader.c ****                     {
 986:Generated_Source\PSoC5/Bootloader.c ****                         /* Cases # 7 */
 987:Generated_Source\PSoC5/Bootloader.c ****                         Bootloader_activeApp = Bootloader_MD_BTLDB_ACTIVE_0;
 988:Generated_Source\PSoC5/Bootloader.c ****                         validApp = CYRET_SUCCESS;
 989:Generated_Source\PSoC5/Bootloader.c ****                     }
 990:Generated_Source\PSoC5/Bootloader.c ****                     #endif /*(((1u == Bootloader_AUTO_SWITCHING_AVAIL) && \
 991:Generated_Source\PSoC5/Bootloader.c ****                                (CYDEV_PROJ_TYPE == CYDEV_PROJ_TYPE_MULTIAPPBOOTLOADER)) \
 992:Generated_Source\PSoC5/Bootloader.c ****                             || (CYDEV_PROJ_TYPE == CYDEV_PROJ_TYPE_LAUNCHER))*/
 993:Generated_Source\PSoC5/Bootloader.c ****                 }
 994:Generated_Source\PSoC5/Bootloader.c ****             }
 995:Generated_Source\PSoC5/Bootloader.c ****         }
ARM GAS  C:\Users\jobaek\AppData\Local\Temp\ccG7Gfbb.s 			page 23


 996:Generated_Source\PSoC5/Bootloader.c ****         
 997:Generated_Source\PSoC5/Bootloader.c ****         #if (CYDEV_PROJ_TYPE == CYDEV_PROJ_TYPE_LAUNCHER) 
 998:Generated_Source\PSoC5/Bootloader.c ****             /*None of applications is active*/
 999:Generated_Source\PSoC5/Bootloader.c ****             if (Bootloader_MD_BTLDB_ACTIVE_NONE ==Bootloader_activeApp)
1000:Generated_Source\PSoC5/Bootloader.c ****             {
1001:Generated_Source\PSoC5/Bootloader.c ****                 /*case#5, case#6: pass control to Bootloadable app#1*/
1002:Generated_Source\PSoC5/Bootloader.c ****                 if(CYRET_SUCCESS == app0Status)
1003:Generated_Source\PSoC5/Bootloader.c ****                 {
1004:Generated_Source\PSoC5/Bootloader.c ****                     Bootloader_activeApp = Bootloader_MD_BTLDB_ACTIVE_0;
1005:Generated_Source\PSoC5/Bootloader.c ****                     validApp = CYRET_SUCCESS;
1006:Generated_Source\PSoC5/Bootloader.c ****                 }
1007:Generated_Source\PSoC5/Bootloader.c ****                 /*case#2: pass control to Bootloadable app#2*/
1008:Generated_Source\PSoC5/Bootloader.c ****                 else if (CYRET_SUCCESS == app1Status)
1009:Generated_Source\PSoC5/Bootloader.c ****                 {
1010:Generated_Source\PSoC5/Bootloader.c ****                     Bootloader_activeApp = Bootloader_MD_BTLDB_ACTIVE_1;
1011:Generated_Source\PSoC5/Bootloader.c ****                     validApp = CYRET_SUCCESS;
1012:Generated_Source\PSoC5/Bootloader.c ****                 }
1013:Generated_Source\PSoC5/Bootloader.c ****                 else
1014:Generated_Source\PSoC5/Bootloader.c ****                 {
1015:Generated_Source\PSoC5/Bootloader.c ****                     /* case#1, case#3, case#9, case#11: very bad situation, no valid application */
1016:Generated_Source\PSoC5/Bootloader.c ****                     /* Do nothing, stay in Bootloader/Launcher */
1017:Generated_Source\PSoC5/Bootloader.c ****                 }
1018:Generated_Source\PSoC5/Bootloader.c ****             }
1019:Generated_Source\PSoC5/Bootloader.c **** 
1020:Generated_Source\PSoC5/Bootloader.c **** 
1021:Generated_Source\PSoC5/Bootloader.c ****              /*********************************************************************************
1022:Generated_Source\PSoC5/Bootloader.c ****             * The next logic is an invalidation of the non-active application in the metadata
1023:Generated_Source\PSoC5/Bootloader.c ****             * section, because there could be a situation due to some error, when both  
1024:Generated_Source\PSoC5/Bootloader.c ****             * applications are set active (cases #12,15,16). Only one application can be active.
1025:Generated_Source\PSoC5/Bootloader.c ****             * This logic also stores the active application number in the metadata section.        
1026:Generated_Source\PSoC5/Bootloader.c ****             *********************************************************************************/
1027:Generated_Source\PSoC5/Bootloader.c ****             if (CYRET_SUCCESS == validApp)
1028:Generated_Source\PSoC5/Bootloader.c ****             {
1029:Generated_Source\PSoC5/Bootloader.c ****                 Bootloader_SetActiveAppInMetadata(Bootloader_activeApp);      
1030:Generated_Source\PSoC5/Bootloader.c ****             }
1031:Generated_Source\PSoC5/Bootloader.c ****         #endif /* CYDEV_PROJ_TYPE == CYDEV_PROJ_TYPE_LAUNCHER */
1032:Generated_Source\PSoC5/Bootloader.c ****     #else /*SINGLE_APP BOOTLOADER*/
1033:Generated_Source\PSoC5/Bootloader.c ****         if (CYRET_SUCCESS == Bootloader_ValidateBootloadable(Bootloader_MD_BTLDB_ACTIVE_0))
 258              		.loc 1 1033 0
 259 000a 0020     		movs	r0, #0
 260 000c FFF7FEFF 		bl	Bootloader_ValidateBootloadable
 261 0010 0346     		mov	r3, r0
 262 0012 002B     		cmp	r3, #0
 263 0014 01D1     		bne	.L16
1034:Generated_Source\PSoC5/Bootloader.c ****         {
1035:Generated_Source\PSoC5/Bootloader.c ****             validApp = CYRET_SUCCESS;
 264              		.loc 1 1035 0
 265 0016 0023     		movs	r3, #0
 266 0018 7B60     		str	r3, [r7, #4]
 267              	.L16:
1036:Generated_Source\PSoC5/Bootloader.c ****         }
1037:Generated_Source\PSoC5/Bootloader.c ****     #endif  /* (0u != Bootloader_DUAL_APP_BOOTLOADER) */
1038:Generated_Source\PSoC5/Bootloader.c **** 
1039:Generated_Source\PSoC5/Bootloader.c ****     
1040:Generated_Source\PSoC5/Bootloader.c ****     /***********************************************************************
1041:Generated_Source\PSoC5/Bootloader.c ****     * Bootloader Application Validation
1042:Generated_Source\PSoC5/Bootloader.c ****     *
ARM GAS  C:\Users\jobaek\AppData\Local\Temp\ccG7Gfbb.s 			page 24


1043:Generated_Source\PSoC5/Bootloader.c ****     * Halt the device if:
1044:Generated_Source\PSoC5/Bootloader.c ****     *  - A calculated checksum does not match the one stored in the metadata
1045:Generated_Source\PSoC5/Bootloader.c ****     *     section.
1046:Generated_Source\PSoC5/Bootloader.c ****     *  - There is an invalid pointer to the place where the Bootloader
1047:Generated_Source\PSoC5/Bootloader.c ****     *    application ends.
1048:Generated_Source\PSoC5/Bootloader.c ****     *  - The flash subsystem was not initialized correctly.
1049:Generated_Source\PSoC5/Bootloader.c ****     ***********************************************************************/
1050:Generated_Source\PSoC5/Bootloader.c ****     #if(0u != Bootloader_BOOTLOADER_APP_VALIDATION)
1051:Generated_Source\PSoC5/Bootloader.c **** 
1052:Generated_Source\PSoC5/Bootloader.c ****         /* Calculate Bootloader application checksum */
1053:Generated_Source\PSoC5/Bootloader.c ****         calcedChecksum = Bootloader_Calc8BitSum(CY_FLASH_BASE,
 268              		.loc 1 1053 0
 269 001a 1D4B     		ldr	r3, .L21
 270 001c 1B68     		ldr	r3, [r3]
 271 001e 1B68     		ldr	r3, [r3]
 272 0020 1A46     		mov	r2, r3
 273 0022 0021     		movs	r1, #0
 274 0024 0020     		movs	r0, #0
 275 0026 FFF7FEFF 		bl	Bootloader_Calc8BitSum
 276 002a 0346     		mov	r3, r0
 277 002c FB70     		strb	r3, [r7, #3]
1054:Generated_Source\PSoC5/Bootloader.c ****                 Bootloader_MD_BTLDR_ADDR_PTR,
1055:Generated_Source\PSoC5/Bootloader.c ****                 *Bootloader_SizeBytesAccess - Bootloader_MD_BTLDR_ADDR_PTR);
1056:Generated_Source\PSoC5/Bootloader.c **** 
1057:Generated_Source\PSoC5/Bootloader.c ****         /* We included checksum, so remove it */
1058:Generated_Source\PSoC5/Bootloader.c ****         calcedChecksum -= *Bootloader_ChecksumAccess;
 278              		.loc 1 1058 0
 279 002e 194B     		ldr	r3, .L21+4
 280 0030 1B68     		ldr	r3, [r3]
 281 0032 1B78     		ldrb	r3, [r3]	@ zero_extendqisi2
 282 0034 FA78     		ldrb	r2, [r7, #3]
 283 0036 D31A     		subs	r3, r2, r3
 284 0038 FB70     		strb	r3, [r7, #3]
1059:Generated_Source\PSoC5/Bootloader.c ****         calcedChecksum = ( uint8 )1u + ( uint8 )(~calcedChecksum);
 285              		.loc 1 1059 0
 286 003a FB78     		ldrb	r3, [r7, #3]
 287 003c 5B42     		negs	r3, r3
 288 003e FB70     		strb	r3, [r7, #3]
1060:Generated_Source\PSoC5/Bootloader.c **** 
1061:Generated_Source\PSoC5/Bootloader.c ****         /* Checksum and pointer to Bootloader verification */
1062:Generated_Source\PSoC5/Bootloader.c ****         if((calcedChecksum != *Bootloader_ChecksumAccess) ||
 289              		.loc 1 1062 0
 290 0040 144B     		ldr	r3, .L21+4
 291 0042 1B68     		ldr	r3, [r3]
 292 0044 1B78     		ldrb	r3, [r3]	@ zero_extendqisi2
 293 0046 FA78     		ldrb	r2, [r7, #3]	@ zero_extendqisi2
 294 0048 9A42     		cmp	r2, r3
 295 004a 04D1     		bne	.L17
1063:Generated_Source\PSoC5/Bootloader.c ****            (0u == *Bootloader_SizeBytesAccess))
 296              		.loc 1 1063 0 discriminator 1
 297 004c 104B     		ldr	r3, .L21
 298 004e 1B68     		ldr	r3, [r3]
 299 0050 1B68     		ldr	r3, [r3]
1062:Generated_Source\PSoC5/Bootloader.c ****            (0u == *Bootloader_SizeBytesAccess))
 300              		.loc 1 1062 0 discriminator 1
 301 0052 002B     		cmp	r3, #0
 302 0054 02D1     		bne	.L18
ARM GAS  C:\Users\jobaek\AppData\Local\Temp\ccG7Gfbb.s 			page 25


 303              	.L17:
1064:Generated_Source\PSoC5/Bootloader.c ****         {
1065:Generated_Source\PSoC5/Bootloader.c ****             /***********************************************************************
1066:Generated_Source\PSoC5/Bootloader.c ****             * If the Bootloader/Launcher application calculated checksum does not match
1067:Generated_Source\PSoC5/Bootloader.c ****             * the checksum stored in special Bootloader_Checksum constant 
1068:Generated_Source\PSoC5/Bootloader.c ****             * (accessed through Bootloader_ChecksumAccess) constant or its size 
1069:Generated_Source\PSoC5/Bootloader.c ****             * stored in Bootloader_SizeBytes constant (accessed through
1070:Generated_Source\PSoC5/Bootloader.c ****             * Bootloader_SizeBytesAccess) then CPU is halted, all software 
1071:Generated_Source\PSoC5/Bootloader.c ****             * processing stops. 
1072:Generated_Source\PSoC5/Bootloader.c ****             ***********************************************************************/
1073:Generated_Source\PSoC5/Bootloader.c ****             CyHalt(0x00u);
 304              		.loc 1 1073 0
 305 0056 0020     		movs	r0, #0
 306 0058 FFF7FEFF 		bl	CyHalt
 307              	.L18:
1074:Generated_Source\PSoC5/Bootloader.c ****         }
1075:Generated_Source\PSoC5/Bootloader.c **** 
1076:Generated_Source\PSoC5/Bootloader.c ****     #endif /* 0u != Bootloader_BOOTLOADER_APP_VALIDATION */
1077:Generated_Source\PSoC5/Bootloader.c **** #endif /* CYDEV_PROJ_TYPE != CYDEV_PROJ_TYPE_LOADABLEANDBOOTLOADER*/ 
1078:Generated_Source\PSoC5/Bootloader.c **** 
1079:Generated_Source\PSoC5/Bootloader.c **** #if (CYDEV_PROJ_TYPE != CYDEV_PROJ_TYPE_LAUNCHER)    
1080:Generated_Source\PSoC5/Bootloader.c ****     /***********************************************************************
1081:Generated_Source\PSoC5/Bootloader.c ****     * If the active Bootloadable application is invalid or scheduled - do the following:
1082:Generated_Source\PSoC5/Bootloader.c ****     *  - schedule the Bootloader application to be run after a software reset;
1083:Generated_Source\PSoC5/Bootloader.c ****     *  - go to the communication subroutine. The HostLink() will wait for
1084:Generated_Source\PSoC5/Bootloader.c ****     *    commands forever.
1085:Generated_Source\PSoC5/Bootloader.c ****     ***********************************************************************/
1086:Generated_Source\PSoC5/Bootloader.c ****     if ((Bootloader_GET_RUN_TYPE == Bootloader_SCHEDULE_BTLDR) 
 308              		.loc 1 1086 0
 309 005c 0E4B     		ldr	r3, .L21+8
 310 005e 1B78     		ldrb	r3, [r3]
 311 0060 DBB2     		uxtb	r3, r3
 312 0062 03F0C003 		and	r3, r3, #192
 313 0066 402B     		cmp	r3, #64
 314 0068 02D0     		beq	.L19
1087:Generated_Source\PSoC5/Bootloader.c **** #if (CYDEV_PROJ_TYPE != CYDEV_PROJ_TYPE_LOADABLEANDBOOTLOADER)        
1088:Generated_Source\PSoC5/Bootloader.c ****         || (CYRET_SUCCESS != validApp)
 315              		.loc 1 1088 0
 316 006a 7B68     		ldr	r3, [r7, #4]
 317 006c 002B     		cmp	r3, #0
 318 006e 05D0     		beq	.L20
 319              	.L19:
1089:Generated_Source\PSoC5/Bootloader.c **** #endif        
1090:Generated_Source\PSoC5/Bootloader.c ****         )
1091:Generated_Source\PSoC5/Bootloader.c ****     {
1092:Generated_Source\PSoC5/Bootloader.c ****         Bootloader_SET_RUN_TYPE(Bootloader_SCHEDULE_BTLDR_INIT_STATE);
 320              		.loc 1 1092 0
 321 0070 094B     		ldr	r3, .L21+8
 322 0072 0022     		movs	r2, #0
 323 0074 1A70     		strb	r2, [r3]
1093:Generated_Source\PSoC5/Bootloader.c **** 
1094:Generated_Source\PSoC5/Bootloader.c ****         Bootloader_HostLink(Bootloader_WAIT_FOR_COMMAND_FOREVER);
 324              		.loc 1 1094 0
 325 0076 0020     		movs	r0, #0
 326 0078 FFF7FEFF 		bl	Bootloader_HostLink
 327              	.L20:
1095:Generated_Source\PSoC5/Bootloader.c ****     }
ARM GAS  C:\Users\jobaek\AppData\Local\Temp\ccG7Gfbb.s 			page 26


1096:Generated_Source\PSoC5/Bootloader.c **** 
1097:Generated_Source\PSoC5/Bootloader.c ****     /* Go to communication subroutine. Will wait for commands for specified time */
1098:Generated_Source\PSoC5/Bootloader.c ****     #if(0u != Bootloader_WAIT_FOR_COMMAND)
1099:Generated_Source\PSoC5/Bootloader.c **** 
1100:Generated_Source\PSoC5/Bootloader.c ****         /* Timeout is in 100s of milliseconds */
1101:Generated_Source\PSoC5/Bootloader.c ****         Bootloader_HostLink(Bootloader_WAIT_FOR_COMMAND_TIME);
 328              		.loc 1 1101 0
 329 007c C820     		movs	r0, #200
 330 007e FFF7FEFF 		bl	Bootloader_HostLink
1102:Generated_Source\PSoC5/Bootloader.c **** 
1103:Generated_Source\PSoC5/Bootloader.c ****     #endif  /* (0u != Bootloader_WAIT_FOR_COMMAND) */
1104:Generated_Source\PSoC5/Bootloader.c **** #else /* Launcher */
1105:Generated_Source\PSoC5/Bootloader.c ****     /* If none Bootloadable application is valid */
1106:Generated_Source\PSoC5/Bootloader.c ****     if (CYRET_SUCCESS != validApp)
1107:Generated_Source\PSoC5/Bootloader.c ****     {   
1108:Generated_Source\PSoC5/Bootloader.c ****         CyHalt(0x00u);
1109:Generated_Source\PSoC5/Bootloader.c ****     }         
1110:Generated_Source\PSoC5/Bootloader.c **** #endif /*CYDEV_PROJ_TYPE != CYDEV_PROJ_TYPE_LAUNCHER*/    
1111:Generated_Source\PSoC5/Bootloader.c **** 
1112:Generated_Source\PSoC5/Bootloader.c **** #if (CYDEV_PROJ_TYPE != CYDEV_PROJ_TYPE_LOADABLEANDBOOTLOADER)             
1113:Generated_Source\PSoC5/Bootloader.c ****     /* Schedule Bootloadable application and perform software reset */
1114:Generated_Source\PSoC5/Bootloader.c ****     Bootloader_LaunchApplication();
 331              		.loc 1 1114 0
 332 0082 FFF7FEFF 		bl	Bootloader_LaunchApplication
1115:Generated_Source\PSoC5/Bootloader.c **** #endif /*(CYDEV_PROJ_TYPE != CYDEV_PROJ_TYPE_LOADABLEANDBOOTLOADER)*/    
1116:Generated_Source\PSoC5/Bootloader.c **** }
 333              		.loc 1 1116 0
 334 0086 00BF     		nop
 335 0088 0837     		adds	r7, r7, #8
 336              		.cfi_def_cfa_offset 8
 337 008a BD46     		mov	sp, r7
 338              		.cfi_def_cfa_register 13
 339              		@ sp needed
 340 008c 80BD     		pop	{r7, pc}
 341              	.L22:
 342 008e 00BF     		.align	2
 343              	.L21:
 344 0090 00000000 		.word	Bootloader_SizeBytesAccess
 345 0094 00000000 		.word	Bootloader_ChecksumAccess
 346 0098 FA460040 		.word	1073759994
 347              		.cfi_endproc
 348              	.LFE66:
 349              		.size	Bootloader_Start, .-Bootloader_Start
 350              		.section	.text.Bootloader_LaunchApplication,"ax",%progbits
 351              		.align	2
 352              		.thumb
 353              		.thumb_func
 354              		.type	Bootloader_LaunchApplication, %function
 355              	Bootloader_LaunchApplication:
 356              	.LFB67:
1117:Generated_Source\PSoC5/Bootloader.c **** 
1118:Generated_Source\PSoC5/Bootloader.c **** #if (CYDEV_PROJ_TYPE != CYDEV_PROJ_TYPE_LOADABLEANDBOOTLOADER)
1119:Generated_Source\PSoC5/Bootloader.c **** /*******************************************************************************
1120:Generated_Source\PSoC5/Bootloader.c **** * Function Name: Bootloader_LaunchApplication
1121:Generated_Source\PSoC5/Bootloader.c **** ****************************************************************************//**
1122:Generated_Source\PSoC5/Bootloader.c **** * \internal
1123:Generated_Source\PSoC5/Bootloader.c **** *
ARM GAS  C:\Users\jobaek\AppData\Local\Temp\ccG7Gfbb.s 			page 27


1124:Generated_Source\PSoC5/Bootloader.c **** * \brief
1125:Generated_Source\PSoC5/Bootloader.c **** *  Schedules the Bootloadable application and resets the device.
1126:Generated_Source\PSoC5/Bootloader.c **** *
1127:Generated_Source\PSoC5/Bootloader.c **** * \return
1128:Generated_Source\PSoC5/Bootloader.c **** *  This method will never return.
1129:Generated_Source\PSoC5/Bootloader.c **** *
1130:Generated_Source\PSoC5/Bootloader.c **** * \endinternal
1131:Generated_Source\PSoC5/Bootloader.c **** *******************************************************************************/
1132:Generated_Source\PSoC5/Bootloader.c **** static void Bootloader_LaunchApplication(void) CYSMALL \
1133:Generated_Source\PSoC5/Bootloader.c ****                     
1134:Generated_Source\PSoC5/Bootloader.c **** {
 357              		.loc 1 1134 0
 358              		.cfi_startproc
 359              		@ args = 0, pretend = 0, frame = 0
 360              		@ frame_needed = 1, uses_anonymous_args = 0
 361 0000 80B5     		push	{r7, lr}
 362              		.cfi_def_cfa_offset 8
 363              		.cfi_offset 7, -8
 364              		.cfi_offset 14, -4
 365 0002 00AF     		add	r7, sp, #0
 366              		.cfi_def_cfa_register 7
1135:Generated_Source\PSoC5/Bootloader.c ****     /* Schedule Bootloadable to start after a reset */
1136:Generated_Source\PSoC5/Bootloader.c ****     Bootloader_SET_RUN_TYPE(Bootloader_SCHEDULE_BTLDB);
 367              		.loc 1 1136 0
 368 0004 034B     		ldr	r3, .L24
 369 0006 8022     		movs	r2, #128
 370 0008 1A70     		strb	r2, [r3]
1137:Generated_Source\PSoC5/Bootloader.c **** 
1138:Generated_Source\PSoC5/Bootloader.c ****     CySoftwareReset();
 371              		.loc 1 1138 0
 372 000a FFF7FEFF 		bl	CySoftwareReset
1139:Generated_Source\PSoC5/Bootloader.c **** }
 373              		.loc 1 1139 0
 374 000e 00BF     		nop
 375 0010 80BD     		pop	{r7, pc}
 376              	.L25:
 377 0012 00BF     		.align	2
 378              	.L24:
 379 0014 FA460040 		.word	1073759994
 380              		.cfi_endproc
 381              	.LFE67:
 382              		.size	Bootloader_LaunchApplication, .-Bootloader_LaunchApplication
 383              		.section	.text.Bootloader_Exit,"ax",%progbits
 384              		.align	2
 385              		.global	Bootloader_Exit
 386              		.thumb
 387              		.thumb_func
 388              		.type	Bootloader_Exit, %function
 389              	Bootloader_Exit:
 390              	.LFB68:
1140:Generated_Source\PSoC5/Bootloader.c **** #endif /*(CYDEV_PROJ_TYPE != CYDEV_PROJ_TYPE_LOADABLEANDBOOTLOADER)*/
1141:Generated_Source\PSoC5/Bootloader.c **** 
1142:Generated_Source\PSoC5/Bootloader.c **** /*******************************************************************************
1143:Generated_Source\PSoC5/Bootloader.c **** * Function Name: Bootloader_Exit
1144:Generated_Source\PSoC5/Bootloader.c **** ****************************************************************************//**
1145:Generated_Source\PSoC5/Bootloader.c **** *
1146:Generated_Source\PSoC5/Bootloader.c **** *\brief
ARM GAS  C:\Users\jobaek\AppData\Local\Temp\ccG7Gfbb.s 			page 28


1147:Generated_Source\PSoC5/Bootloader.c **** *  Schedules the specified application and performs a software reset to launch
1148:Generated_Source\PSoC5/Bootloader.c **** *  a specified application.
1149:Generated_Source\PSoC5/Bootloader.c **** *
1150:Generated_Source\PSoC5/Bootloader.c **** *  If the specified application is not valid, the Bootloader (the result of the
1151:Generated_Source\PSoC5/Bootloader.c **** *  ValidateBootloadable() function execution returns other than CYRET_SUCCESS,
1152:Generated_Source\PSoC5/Bootloader.c **** *  the Bootloader application is launched.
1153:Generated_Source\PSoC5/Bootloader.c **** *
1154:Generated_Source\PSoC5/Bootloader.c **** * \param appId 
1155:Generated_Source\PSoC5/Bootloader.c **** *   The application to be started:
1156:Generated_Source\PSoC5/Bootloader.c **** *   - Bootloader_EXIT_TO_BTLDR - The Bootloader application will be started on
1157:Generated_Source\PSoC5/Bootloader.c **** *                                     a software reset.
1158:Generated_Source\PSoC5/Bootloader.c **** *   - Bootloader_EXIT_TO_BTLDB;
1159:Generated_Source\PSoC5/Bootloader.c **** *   - Bootloader_EXIT_TO_BTLDB_1 - Bootloadable application # 1 will be
1160:Generated_Source\PSoC5/Bootloader.c **** *                                     started on a software reset.
1161:Generated_Source\PSoC5/Bootloader.c **** *   - Bootloader_EXIT_TO_BTLDB_2 - Bootloadable application # 2 will be
1162:Generated_Source\PSoC5/Bootloader.c **** *                                     started on a software reset. Available only
1163:Generated_Source\PSoC5/Bootloader.c **** *                                     if the "Dual-application" option is enabled in
1164:Generated_Source\PSoC5/Bootloader.c **** *                                     the component customizer.
1165:Generated_Source\PSoC5/Bootloader.c **** * \return
1166:Generated_Source\PSoC5/Bootloader.c **** *  This function never returns.
1167:Generated_Source\PSoC5/Bootloader.c **** *
1168:Generated_Source\PSoC5/Bootloader.c **** *******************************************************************************/
1169:Generated_Source\PSoC5/Bootloader.c **** void Bootloader_Exit(uint8 appId) CYSMALL 
1170:Generated_Source\PSoC5/Bootloader.c **** {
 391              		.loc 1 1170 0
 392              		.cfi_startproc
 393              		@ args = 0, pretend = 0, frame = 16
 394              		@ frame_needed = 1, uses_anonymous_args = 0
 395 0000 80B5     		push	{r7, lr}
 396              		.cfi_def_cfa_offset 8
 397              		.cfi_offset 7, -8
 398              		.cfi_offset 14, -4
 399 0002 84B0     		sub	sp, sp, #16
 400              		.cfi_def_cfa_offset 24
 401 0004 00AF     		add	r7, sp, #0
 402              		.cfi_def_cfa_register 7
 403 0006 0346     		mov	r3, r0
 404 0008 FB71     		strb	r3, [r7, #7]
1171:Generated_Source\PSoC5/Bootloader.c ****     if(Bootloader_EXIT_TO_BTLDR == appId)
 405              		.loc 1 1171 0
 406 000a FB79     		ldrb	r3, [r7, #7]	@ zero_extendqisi2
 407 000c 022B     		cmp	r3, #2
 408 000e 03D1     		bne	.L27
1172:Generated_Source\PSoC5/Bootloader.c ****     {
1173:Generated_Source\PSoC5/Bootloader.c ****         Bootloader_SET_RUN_TYPE(Bootloader_SCHEDULE_BTLDR_INIT_STATE);
 409              		.loc 1 1173 0
 410 0010 1A4B     		ldr	r3, .L32
 411 0012 0022     		movs	r2, #0
 412 0014 1A70     		strb	r2, [r3]
 413 0016 2AE0     		b	.L28
 414              	.L27:
1174:Generated_Source\PSoC5/Bootloader.c ****     }
1175:Generated_Source\PSoC5/Bootloader.c ****     else
1176:Generated_Source\PSoC5/Bootloader.c ****     {
1177:Generated_Source\PSoC5/Bootloader.c ****         if(CYRET_SUCCESS == Bootloader_ValidateBootloadable(appId))
 415              		.loc 1 1177 0
 416 0018 FB79     		ldrb	r3, [r7, #7]	@ zero_extendqisi2
ARM GAS  C:\Users\jobaek\AppData\Local\Temp\ccG7Gfbb.s 			page 29


 417 001a 1846     		mov	r0, r3
 418 001c FFF7FEFF 		bl	Bootloader_ValidateBootloadable
 419 0020 0346     		mov	r3, r0
 420 0022 002B     		cmp	r3, #0
 421 0024 20D1     		bne	.L29
 422              	.LBB2:
1178:Generated_Source\PSoC5/Bootloader.c ****         {
1179:Generated_Source\PSoC5/Bootloader.c ****             /* Set active application in metadata */
1180:Generated_Source\PSoC5/Bootloader.c ****             uint8 CYDATA idx;
1181:Generated_Source\PSoC5/Bootloader.c ****             for(idx = 0u; idx < Bootloader_MAX_NUM_OF_BTLDB; idx++)
 423              		.loc 1 1181 0
 424 0026 0023     		movs	r3, #0
 425 0028 FB73     		strb	r3, [r7, #15]
 426 002a 16E0     		b	.L30
 427              	.L31:
1182:Generated_Source\PSoC5/Bootloader.c ****             {
1183:Generated_Source\PSoC5/Bootloader.c ****                 Bootloader_SetFlashByte((uint32) Bootloader_MD_BTLDB_ACTIVE_OFFSET(idx),
 428              		.loc 1 1183 0 discriminator 3
 429 002c FA7B     		ldrb	r2, [r7, #15]	@ zero_extendqisi2
 430 002e 1346     		mov	r3, r2
 431 0030 1B06     		lsls	r3, r3, #24
 432 0032 9B1A     		subs	r3, r3, r2
 433 0034 1B02     		lsls	r3, r3, #8
 434 0036 03F57F33 		add	r3, r3, #261120
 435 003a 03F57473 		add	r3, r3, #976
 436 003e F97B     		ldrb	r1, [r7, #15]	@ zero_extendqisi2
 437 0040 FA79     		ldrb	r2, [r7, #7]	@ zero_extendqisi2
 438 0042 9142     		cmp	r1, r2
 439 0044 0CBF     		ite	eq
 440 0046 0122     		moveq	r2, #1
 441 0048 0022     		movne	r2, #0
 442 004a D2B2     		uxtb	r2, r2
 443 004c 1146     		mov	r1, r2
 444 004e 1846     		mov	r0, r3
 445 0050 FFF7FEFF 		bl	Bootloader_SetFlashByte
1181:Generated_Source\PSoC5/Bootloader.c ****             {
 446              		.loc 1 1181 0 discriminator 3
 447 0054 FB7B     		ldrb	r3, [r7, #15]	@ zero_extendqisi2
 448 0056 0133     		adds	r3, r3, #1
 449 0058 FB73     		strb	r3, [r7, #15]
 450              	.L30:
1181:Generated_Source\PSoC5/Bootloader.c ****             {
 451              		.loc 1 1181 0 is_stmt 0 discriminator 1
 452 005a FB7B     		ldrb	r3, [r7, #15]	@ zero_extendqisi2
 453 005c 002B     		cmp	r3, #0
 454 005e E5D0     		beq	.L31
1184:Generated_Source\PSoC5/Bootloader.c ****                                               (uint8 )(idx == appId));
1185:Generated_Source\PSoC5/Bootloader.c ****             }
1186:Generated_Source\PSoC5/Bootloader.c **** 
1187:Generated_Source\PSoC5/Bootloader.c ****         #if((0u != Bootloader_DUAL_APP_BOOTLOADER) || \
1188:Generated_Source\PSoC5/Bootloader.c ****             (CYDEV_PROJ_TYPE == CYDEV_PROJ_TYPE_LOADABLEANDBOOTLOADER))
1189:Generated_Source\PSoC5/Bootloader.c ****             Bootloader_activeApp = appId;
1190:Generated_Source\PSoC5/Bootloader.c ****         #endif /* (0u != Bootloader_DUAL_APP_BOOTLOADER) || 
1191:Generated_Source\PSoC5/Bootloader.c ****                   (CYDEV_PROJ_TYPE == CYDEV_PROJ_TYPE_LOADABLEANDBOOTLOADER))*/
1192:Generated_Source\PSoC5/Bootloader.c **** 
1193:Generated_Source\PSoC5/Bootloader.c ****             Bootloader_SET_RUN_TYPE(Bootloader_SCHEDULE_BTLDB);
 455              		.loc 1 1193 0 is_stmt 1
ARM GAS  C:\Users\jobaek\AppData\Local\Temp\ccG7Gfbb.s 			page 30


 456 0060 064B     		ldr	r3, .L32
 457 0062 8022     		movs	r2, #128
 458 0064 1A70     		strb	r2, [r3]
 459              	.LBE2:
 460 0066 02E0     		b	.L28
 461              	.L29:
1194:Generated_Source\PSoC5/Bootloader.c ****         }
1195:Generated_Source\PSoC5/Bootloader.c ****         else
1196:Generated_Source\PSoC5/Bootloader.c ****         {
1197:Generated_Source\PSoC5/Bootloader.c ****             Bootloader_SET_RUN_TYPE(Bootloader_SCHEDULE_BTLDR_INIT_STATE);
 462              		.loc 1 1197 0
 463 0068 044B     		ldr	r3, .L32
 464 006a 0022     		movs	r2, #0
 465 006c 1A70     		strb	r2, [r3]
 466              	.L28:
1198:Generated_Source\PSoC5/Bootloader.c ****         }
1199:Generated_Source\PSoC5/Bootloader.c ****     }
1200:Generated_Source\PSoC5/Bootloader.c **** 
1201:Generated_Source\PSoC5/Bootloader.c ****     CySoftwareReset();
 467              		.loc 1 1201 0
 468 006e FFF7FEFF 		bl	CySoftwareReset
1202:Generated_Source\PSoC5/Bootloader.c **** }
 469              		.loc 1 1202 0
 470 0072 00BF     		nop
 471 0074 1037     		adds	r7, r7, #16
 472              		.cfi_def_cfa_offset 8
 473 0076 BD46     		mov	sp, r7
 474              		.cfi_def_cfa_register 13
 475              		@ sp needed
 476 0078 80BD     		pop	{r7, pc}
 477              	.L33:
 478 007a 00BF     		.align	2
 479              	.L32:
 480 007c FA460040 		.word	1073759994
 481              		.cfi_endproc
 482              	.LFE68:
 483              		.size	Bootloader_Exit, .-Bootloader_Exit
 484              		.section	.text.CyBtldr_CheckLaunch,"ax",%progbits
 485              		.align	2
 486              		.global	CyBtldr_CheckLaunch
 487              		.thumb
 488              		.thumb_func
 489              		.type	CyBtldr_CheckLaunch, %function
 490              	CyBtldr_CheckLaunch:
 491              	.LFB69:
1203:Generated_Source\PSoC5/Bootloader.c **** 
1204:Generated_Source\PSoC5/Bootloader.c **** #if (CYDEV_PROJ_TYPE != CYDEV_PROJ_TYPE_LOADABLEANDBOOTLOADER)
1205:Generated_Source\PSoC5/Bootloader.c **** /*******************************************************************************
1206:Generated_Source\PSoC5/Bootloader.c **** * Function Name: CyBtldr_CheckLaunch
1207:Generated_Source\PSoC5/Bootloader.c **** ****************************************************************************//**
1208:Generated_Source\PSoC5/Bootloader.c **** * \internal
1209:Generated_Source\PSoC5/Bootloader.c **** *
1210:Generated_Source\PSoC5/Bootloader.c **** * \brief
1211:Generated_Source\PSoC5/Bootloader.c **** *  This routine checks if the Bootloader or Bootloadable application has to
1212:Generated_Source\PSoC5/Bootloader.c **** *  be run.  If the application has to be run, it will start executing.
1213:Generated_Source\PSoC5/Bootloader.c **** *  If the Bootloader has to be run, it will return, so the Bootloader can
1214:Generated_Source\PSoC5/Bootloader.c **** *  continue starting up.
ARM GAS  C:\Users\jobaek\AppData\Local\Temp\ccG7Gfbb.s 			page 31


1215:Generated_Source\PSoC5/Bootloader.c **** *
1216:Generated_Source\PSoC5/Bootloader.c **** * \return
1217:Generated_Source\PSoC5/Bootloader.c **** *  It will not return if it determines that the Bootloadable application should
1218:Generated_Source\PSoC5/Bootloader.c **** *  be run.
1219:Generated_Source\PSoC5/Bootloader.c **** *
1220:Generated_Source\PSoC5/Bootloader.c **** * \endinternal
1221:Generated_Source\PSoC5/Bootloader.c **** *******************************************************************************/
1222:Generated_Source\PSoC5/Bootloader.c **** void CyBtldr_CheckLaunch(void) CYSMALL 
1223:Generated_Source\PSoC5/Bootloader.c **** {
 492              		.loc 1 1223 0
 493              		.cfi_startproc
 494              		@ args = 0, pretend = 0, frame = 8
 495              		@ frame_needed = 1, uses_anonymous_args = 0
 496 0000 80B5     		push	{r7, lr}
 497              		.cfi_def_cfa_offset 8
 498              		.cfi_offset 7, -8
 499              		.cfi_offset 14, -4
 500 0002 82B0     		sub	sp, sp, #8
 501              		.cfi_def_cfa_offset 16
 502 0004 00AF     		add	r7, sp, #0
 503              		.cfi_def_cfa_register 7
1224:Generated_Source\PSoC5/Bootloader.c **** 
1225:Generated_Source\PSoC5/Bootloader.c **** #if(CY_PSOC4)
1226:Generated_Source\PSoC5/Bootloader.c **** 
1227:Generated_Source\PSoC5/Bootloader.c ****     /*******************************************************************************
1228:Generated_Source\PSoC5/Bootloader.c ****     * Set cyBtldrRunType to zero in the case of a non-software reset. This means
1229:Generated_Source\PSoC5/Bootloader.c ****     * that the Bootloader application is scheduled - the initial clean state. The
1230:Generated_Source\PSoC5/Bootloader.c ****     * value of cyBtldrRunType is valid only in the case of a software reset.
1231:Generated_Source\PSoC5/Bootloader.c ****     *******************************************************************************/
1232:Generated_Source\PSoC5/Bootloader.c ****     if (0u == (Bootloader_RES_CAUSE_REG & Bootloader_RES_CAUSE_RESET_SOFT))
1233:Generated_Source\PSoC5/Bootloader.c ****     {
1234:Generated_Source\PSoC5/Bootloader.c ****         cyBtldrRunType = Bootloader_SCHEDULE_BTLDR_INIT_STATE;
1235:Generated_Source\PSoC5/Bootloader.c ****     }
1236:Generated_Source\PSoC5/Bootloader.c **** 
1237:Generated_Source\PSoC5/Bootloader.c **** #endif /* (CY_PSOC4) */
1238:Generated_Source\PSoC5/Bootloader.c **** 
1239:Generated_Source\PSoC5/Bootloader.c **** 
1240:Generated_Source\PSoC5/Bootloader.c ****     if (Bootloader_GET_RUN_TYPE == Bootloader_SCHEDULE_BTLDB)
 504              		.loc 1 1240 0
 505 0006 104B     		ldr	r3, .L37
 506 0008 1B78     		ldrb	r3, [r3]
 507 000a DBB2     		uxtb	r3, r3
 508 000c 03F0C003 		and	r3, r3, #192
 509 0010 802B     		cmp	r3, #128
 510 0012 15D1     		bne	.L36
 511              	.LBB3:
1241:Generated_Source\PSoC5/Bootloader.c ****     {
1242:Generated_Source\PSoC5/Bootloader.c **** 
1243:Generated_Source\PSoC5/Bootloader.c **** 
1244:Generated_Source\PSoC5/Bootloader.c ****     #if (CYDEV_PROJ_TYPE != CYDEV_PROJ_TYPE_LAUNCHER)
1245:Generated_Source\PSoC5/Bootloader.c ****         /******************************************************************************* 
1246:Generated_Source\PSoC5/Bootloader.c ****         * Classic Single-app or Dual-app Bootloader use cases.
1247:Generated_Source\PSoC5/Bootloader.c ****         * The active application number is taken from Bootloader_activeApp not
1248:Generated_Source\PSoC5/Bootloader.c ****         * to break backward compatibility.
1249:Generated_Source\PSoC5/Bootloader.c ****         *******************************************************************************/
1250:Generated_Source\PSoC5/Bootloader.c ****         uint8 activeApp = Bootloader_activeApp;
 512              		.loc 1 1250 0
ARM GAS  C:\Users\jobaek\AppData\Local\Temp\ccG7Gfbb.s 			page 32


 513 0014 0023     		movs	r3, #0
 514 0016 FB71     		strb	r3, [r7, #7]
1251:Generated_Source\PSoC5/Bootloader.c ****         
1252:Generated_Source\PSoC5/Bootloader.c ****         
1253:Generated_Source\PSoC5/Bootloader.c ****         /******************************************************************************* 
1254:Generated_Source\PSoC5/Bootloader.c ****         * Classic Dual-app Bootloader with 2 Combination projects use case.
1255:Generated_Source\PSoC5/Bootloader.c ****         * In this use case Classic Dual-app Bootloader is not the only one, who switches
1256:Generated_Source\PSoC5/Bootloader.c ****         * between applications. So if there is no valid value for Bootloader_activeApp,
1257:Generated_Source\PSoC5/Bootloader.c ****         * then we should additionally check the metadata if one of the Combination application
1258:Generated_Source\PSoC5/Bootloader.c ****         * has set a value there.
1259:Generated_Source\PSoC5/Bootloader.c ****         *******************************************************************************/ 
1260:Generated_Source\PSoC5/Bootloader.c ****         #if (CYDEV_PROJ_TYPE == CYDEV_PROJ_TYPE_MULTIAPPBOOTLOADER)
1261:Generated_Source\PSoC5/Bootloader.c ****         if (activeApp >= Bootloader_MD_BTLDB_ACTIVE_NONE) 
1262:Generated_Source\PSoC5/Bootloader.c ****         {
1263:Generated_Source\PSoC5/Bootloader.c ****             activeApp = Bootloader_GetActiveAppFromMetadata();
1264:Generated_Source\PSoC5/Bootloader.c ****         }
1265:Generated_Source\PSoC5/Bootloader.c ****         #endif /*(CYDEV_PROJ_TYPE == CYDEV_PROJ_TYPE_MULTIAPPBOOTLOADER)*/ 
1266:Generated_Source\PSoC5/Bootloader.c ****     #else 
1267:Generated_Source\PSoC5/Bootloader.c ****         /* Launcher use case.  The active application number is taken from metadata. */
1268:Generated_Source\PSoC5/Bootloader.c ****         uint8 activeApp = Bootloader_GetActiveAppFromMetadata(); 
1269:Generated_Source\PSoC5/Bootloader.c ****     #endif /* (CYDEV_PROJ_TYPE != CYDEV_PROJ_TYPE_LAUNCHER) */
1270:Generated_Source\PSoC5/Bootloader.c ****         
1271:Generated_Source\PSoC5/Bootloader.c ****         Bootloader_SET_RUN_TYPE(Bootloader_SCHEDULE_BTLDR_INIT_STATE);
 515              		.loc 1 1271 0
 516 0018 0B4B     		ldr	r3, .L37
 517 001a 0022     		movs	r2, #0
 518 001c 1A70     		strb	r2, [r3]
1272:Generated_Source\PSoC5/Bootloader.c **** 
1273:Generated_Source\PSoC5/Bootloader.c ****         /*******************************************************************************
1274:Generated_Source\PSoC5/Bootloader.c ****         * Indicates that we have told ourselves to jump to the application because we have
1275:Generated_Source\PSoC5/Bootloader.c ****         * already told ourselves to jump, we do not do any expensive verification of the
1276:Generated_Source\PSoC5/Bootloader.c ****         * application. We just check to make sure that the value at CY_APP_ADDR_ADDRESS
1277:Generated_Source\PSoC5/Bootloader.c ****         * is something other than 0 and active application is valid.
1278:Generated_Source\PSoC5/Bootloader.c ****         *******************************************************************************/
1279:Generated_Source\PSoC5/Bootloader.c ****         if ((0u != Bootloader_GetMetadata(Bootloader_GET_BTLDB_ADDR, activeApp)) 
 519              		.loc 1 1279 0
 520 001e FB79     		ldrb	r3, [r7, #7]	@ zero_extendqisi2
 521 0020 1946     		mov	r1, r3
 522 0022 0220     		movs	r0, #2
 523 0024 FFF7FEFF 		bl	Bootloader_GetMetadata
 524 0028 0346     		mov	r3, r0
 525 002a 002B     		cmp	r3, #0
 526 002c 08D0     		beq	.L36
1280:Generated_Source\PSoC5/Bootloader.c ****     #if (CYDEV_PROJ_TYPE != CYDEV_PROJ_TYPE_BOOTLOADER)
1281:Generated_Source\PSoC5/Bootloader.c ****             && (activeApp < Bootloader_MD_BTLDB_ACTIVE_NONE)
1282:Generated_Source\PSoC5/Bootloader.c ****     #endif /* (CYDEV_PROJ_TYPE != CYDEV_PROJ_TYPE_BOOTLOADER) */        
1283:Generated_Source\PSoC5/Bootloader.c ****             )
1284:Generated_Source\PSoC5/Bootloader.c ****         {
1285:Generated_Source\PSoC5/Bootloader.c ****             /* Never returns from this method */
1286:Generated_Source\PSoC5/Bootloader.c ****             Bootloader_LaunchBootloadable(Bootloader_GetMetadata(Bootloader_GET_BTLDB_ADDR,
 527              		.loc 1 1286 0
 528 002e FB79     		ldrb	r3, [r7, #7]	@ zero_extendqisi2
 529 0030 1946     		mov	r1, r3
 530 0032 0220     		movs	r0, #2
 531 0034 FFF7FEFF 		bl	Bootloader_GetMetadata
 532 0038 0346     		mov	r3, r0
 533 003a 1846     		mov	r0, r3
ARM GAS  C:\Users\jobaek\AppData\Local\Temp\ccG7Gfbb.s 			page 33


 534 003c FFF7FEFF 		bl	Bootloader_LaunchBootloadable
 535              	.L36:
 536              	.LBE3:
1287:Generated_Source\PSoC5/Bootloader.c ****                                                                              activeApp));
1288:Generated_Source\PSoC5/Bootloader.c ****         }
1289:Generated_Source\PSoC5/Bootloader.c ****     }
1290:Generated_Source\PSoC5/Bootloader.c **** }
 537              		.loc 1 1290 0
 538 0040 00BF     		nop
 539 0042 0837     		adds	r7, r7, #8
 540              		.cfi_def_cfa_offset 8
 541 0044 BD46     		mov	sp, r7
 542              		.cfi_def_cfa_register 13
 543              		@ sp needed
 544 0046 80BD     		pop	{r7, pc}
 545              	.L38:
 546              		.align	2
 547              	.L37:
 548 0048 FA460040 		.word	1073759994
 549              		.cfi_endproc
 550              	.LFE69:
 551              		.size	CyBtldr_CheckLaunch, .-CyBtldr_CheckLaunch
 552              		.section	.text.Bootloader_LaunchBootloadable,"ax",%progbits
 553              		.align	2
 554              		.thumb
 555              		.thumb_func
 556              		.type	Bootloader_LaunchBootloadable, %function
 557              	Bootloader_LaunchBootloadable:
 558              	.LFB70:
1291:Generated_Source\PSoC5/Bootloader.c **** 
1292:Generated_Source\PSoC5/Bootloader.c **** 
1293:Generated_Source\PSoC5/Bootloader.c **** /* Moves argument appAddr (RO) into PC, moving execution to appAddr */
1294:Generated_Source\PSoC5/Bootloader.c **** #if defined (__ARMCC_VERSION)
1295:Generated_Source\PSoC5/Bootloader.c **** 
1296:Generated_Source\PSoC5/Bootloader.c ****     __asm static void Bootloader_LaunchBootloadable(uint32 appAddr)
1297:Generated_Source\PSoC5/Bootloader.c ****     {
1298:Generated_Source\PSoC5/Bootloader.c ****         BX  R0
1299:Generated_Source\PSoC5/Bootloader.c ****         ALIGN
1300:Generated_Source\PSoC5/Bootloader.c ****     }
1301:Generated_Source\PSoC5/Bootloader.c **** 
1302:Generated_Source\PSoC5/Bootloader.c **** #elif defined(__GNUC__)
1303:Generated_Source\PSoC5/Bootloader.c **** 
1304:Generated_Source\PSoC5/Bootloader.c ****     __attribute__((noinline)) /* Workaround for GCC toolchain bug with inlining */
1305:Generated_Source\PSoC5/Bootloader.c ****     __attribute__((naked))
1306:Generated_Source\PSoC5/Bootloader.c ****     static void Bootloader_LaunchBootloadable(uint32 appAddr)
1307:Generated_Source\PSoC5/Bootloader.c ****     {
 559              		.loc 1 1307 0
 560              		.cfi_startproc
 561              		@ Naked Function: prologue and epilogue provided by programmer.
 562              		@ args = 0, pretend = 0, frame = 0
 563              		@ frame_needed = 1, uses_anonymous_args = 0
1308:Generated_Source\PSoC5/Bootloader.c ****         __asm volatile("    BX  R0\n");
 564              		.loc 1 1308 0
 565              		.syntax unified
 566              	@ 1308 "Generated_Source\PSoC5\Bootloader.c" 1
 567 0000 0047     		    BX  R0
 568              	
ARM GAS  C:\Users\jobaek\AppData\Local\Temp\ccG7Gfbb.s 			page 34


 569              	@ 0 "" 2
1309:Generated_Source\PSoC5/Bootloader.c ****     }
 570              		.loc 1 1309 0
 571              		.thumb
 572              		.syntax unified
 573 0002 00BF     		nop
 574              		.cfi_endproc
 575              	.LFE70:
 576              		.size	Bootloader_LaunchBootloadable, .-Bootloader_LaunchBootloadable
 577              		.section	.text.Bootloader_ValidateBootloadable,"ax",%progbits
 578              		.align	2
 579              		.global	Bootloader_ValidateBootloadable
 580              		.thumb
 581              		.thumb_func
 582              		.type	Bootloader_ValidateBootloadable, %function
 583              	Bootloader_ValidateBootloadable:
 584              	.LFB71:
1310:Generated_Source\PSoC5/Bootloader.c **** 
1311:Generated_Source\PSoC5/Bootloader.c **** #elif defined (__ICCARM__)
1312:Generated_Source\PSoC5/Bootloader.c **** 
1313:Generated_Source\PSoC5/Bootloader.c ****     static void Bootloader_LaunchBootloadable(uint32 appAddr)
1314:Generated_Source\PSoC5/Bootloader.c ****     {
1315:Generated_Source\PSoC5/Bootloader.c ****         __asm volatile("    BX  R0\n");
1316:Generated_Source\PSoC5/Bootloader.c ****     }
1317:Generated_Source\PSoC5/Bootloader.c **** 
1318:Generated_Source\PSoC5/Bootloader.c **** #endif  /* (__ARMCC_VERSION) */
1319:Generated_Source\PSoC5/Bootloader.c **** #endif /* (CYDEV_PROJ_TYPE != CYDEV_PROJ_TYPE_LOADABLEANDBOOTLOADER)*/
1320:Generated_Source\PSoC5/Bootloader.c **** 
1321:Generated_Source\PSoC5/Bootloader.c **** /*******************************************************************************
1322:Generated_Source\PSoC5/Bootloader.c **** * Function Name: Bootloader_ValidateBootloadable
1323:Generated_Source\PSoC5/Bootloader.c **** ****************************************************************************//**
1324:Generated_Source\PSoC5/Bootloader.c **** * \brief
1325:Generated_Source\PSoC5/Bootloader.c **** *  Performs the Bootloadable application validation by calculating the
1326:Generated_Source\PSoC5/Bootloader.c **** *  application image checksum and comparing it with the checksum value stored
1327:Generated_Source\PSoC5/Bootloader.c **** *  in the Bootloadable Application Checksum field of the metadata section.
1328:Generated_Source\PSoC5/Bootloader.c **** *
1329:Generated_Source\PSoC5/Bootloader.c **** *  If the "Fast bootloadable application validation" option is enabled in the
1330:Generated_Source\PSoC5/Bootloader.c **** *  component customizer and Bootloadable application successfully passes
1331:Generated_Source\PSoC5/Bootloader.c **** *  validation, the Bootloadable Application Verification Status field of the
1332:Generated_Source\PSoC5/Bootloader.c **** *  metadata section is updated. Refer to the "Metadata Layout" section for the
1333:Generated_Source\PSoC5/Bootloader.c **** *  details.
1334:Generated_Source\PSoC5/Bootloader.c **** *
1335:Generated_Source\PSoC5/Bootloader.c **** *  If the "Fast bootloadable application validation" option is enabled and
1336:Generated_Source\PSoC5/Bootloader.c **** *  the Bootloadable Application Verification Status field of the metadata section
1337:Generated_Source\PSoC5/Bootloader.c **** *  claims that the Bootloadable application is valid, the function returns
1338:Generated_Source\PSoC5/Bootloader.c **** *  CYRET_SUCCESS without further checksum calculation.
1339:Generated_Source\PSoC5/Bootloader.c **** *
1340:Generated_Source\PSoC5/Bootloader.c **** *  \param appId
1341:Generated_Source\PSoC5/Bootloader.c **** *  The number of the Bootloadable application should be 0 for the normal
1342:Generated_Source\PSoC5/Bootloader.c **** *  bootloader and 0 or 1 for the dual-application bootloader.
1343:Generated_Source\PSoC5/Bootloader.c **** *
1344:Generated_Source\PSoC5/Bootloader.c **** * \return
1345:Generated_Source\PSoC5/Bootloader.c **** *  CYRET_SUCCESS - If the specified the Bootloadable application is valid.
1346:Generated_Source\PSoC5/Bootloader.c **** *  CYRET_BAD_DATA is returned if the input parameter is out of the specified range
1347:Generated_Source\PSoC5/Bootloader.c **** *      or the calculated checksum does not match the stored checksum.
1348:Generated_Source\PSoC5/Bootloader.c **** *******************************************************************************/
1349:Generated_Source\PSoC5/Bootloader.c **** cystatus Bootloader_ValidateBootloadable(uint8 appId) CYSMALL \
ARM GAS  C:\Users\jobaek\AppData\Local\Temp\ccG7Gfbb.s 			page 35


1350:Generated_Source\PSoC5/Bootloader.c **** 
1351:Generated_Source\PSoC5/Bootloader.c ****     {
 585              		.loc 1 1351 0
 586              		.cfi_startproc
 587              		@ args = 0, pretend = 0, frame = 24
 588              		@ frame_needed = 1, uses_anonymous_args = 0
 589 0000 90B5     		push	{r4, r7, lr}
 590              		.cfi_def_cfa_offset 12
 591              		.cfi_offset 4, -12
 592              		.cfi_offset 7, -8
 593              		.cfi_offset 14, -4
 594 0002 87B0     		sub	sp, sp, #28
 595              		.cfi_def_cfa_offset 40
 596 0004 00AF     		add	r7, sp, #0
 597              		.cfi_def_cfa_register 7
 598 0006 0346     		mov	r3, r0
 599 0008 FB71     		strb	r3, [r7, #7]
1352:Generated_Source\PSoC5/Bootloader.c ****         uint32 CYDATA idx;
1353:Generated_Source\PSoC5/Bootloader.c **** 
1354:Generated_Source\PSoC5/Bootloader.c ****         uint32 CYDATA end   = Bootloader_FIRST_APP_BYTE(appId) +
 600              		.loc 1 1354 0
 601 000a FB79     		ldrb	r3, [r7, #7]	@ zero_extendqisi2
 602 000c 1946     		mov	r1, r3
 603 000e 0320     		movs	r0, #3
 604 0010 FFF7FEFF 		bl	Bootloader_GetMetadata
 605 0014 0346     		mov	r3, r0
 606 0016 0133     		adds	r3, r3, #1
 607 0018 1C02     		lsls	r4, r3, #8
1355:Generated_Source\PSoC5/Bootloader.c ****                               Bootloader_GetMetadata(Bootloader_GET_BTLDB_LENGTH, appId);
 608              		.loc 1 1355 0
 609 001a FB79     		ldrb	r3, [r7, #7]	@ zero_extendqisi2
 610 001c 1946     		mov	r1, r3
 611 001e 0420     		movs	r0, #4
 612 0020 FFF7FEFF 		bl	Bootloader_GetMetadata
 613 0024 0346     		mov	r3, r0
1354:Generated_Source\PSoC5/Bootloader.c ****                               Bootloader_GetMetadata(Bootloader_GET_BTLDB_LENGTH, appId);
 614              		.loc 1 1354 0
 615 0026 2344     		add	r3, r3, r4
 616 0028 FB60     		str	r3, [r7, #12]
1356:Generated_Source\PSoC5/Bootloader.c **** 
1357:Generated_Source\PSoC5/Bootloader.c ****         CYBIT  valid = 0u; /* Assume bad flash image */
 617              		.loc 1 1357 0
 618 002a 0023     		movs	r3, #0
 619 002c FB74     		strb	r3, [r7, #19]
1358:Generated_Source\PSoC5/Bootloader.c ****         uint8  CYDATA calcedChecksum = 0u;
 620              		.loc 1 1358 0
 621 002e 0023     		movs	r3, #0
 622 0030 BB74     		strb	r3, [r7, #18]
1359:Generated_Source\PSoC5/Bootloader.c **** 
1360:Generated_Source\PSoC5/Bootloader.c **** 
1361:Generated_Source\PSoC5/Bootloader.c ****         #if(0u != Bootloader_DUAL_APP_BOOTLOADER)
1362:Generated_Source\PSoC5/Bootloader.c **** 
1363:Generated_Source\PSoC5/Bootloader.c ****             if(appId > 1u)
1364:Generated_Source\PSoC5/Bootloader.c ****             {
1365:Generated_Source\PSoC5/Bootloader.c ****                 return(CYRET_BAD_DATA);
1366:Generated_Source\PSoC5/Bootloader.c ****             }
1367:Generated_Source\PSoC5/Bootloader.c **** 
ARM GAS  C:\Users\jobaek\AppData\Local\Temp\ccG7Gfbb.s 			page 36


1368:Generated_Source\PSoC5/Bootloader.c ****         #endif  /* (0u != Bootloader_DUAL_APP_BOOTLOADER) */
1369:Generated_Source\PSoC5/Bootloader.c **** 
1370:Generated_Source\PSoC5/Bootloader.c **** 
1371:Generated_Source\PSoC5/Bootloader.c ****         #if(0u != Bootloader_FAST_APP_VALIDATION)
1372:Generated_Source\PSoC5/Bootloader.c ****             if(Bootloader_GetMetadata(Bootloader_GET_BTLDB_STATUS, appId) ==
1373:Generated_Source\PSoC5/Bootloader.c ****                Bootloader_MD_BTLDB_IS_VERIFIED)
1374:Generated_Source\PSoC5/Bootloader.c ****             {
1375:Generated_Source\PSoC5/Bootloader.c ****                 return(CYRET_SUCCESS);
1376:Generated_Source\PSoC5/Bootloader.c ****             }
1377:Generated_Source\PSoC5/Bootloader.c ****         #endif  /* (0u != Bootloader_FAST_APP_VALIDATION) */
1378:Generated_Source\PSoC5/Bootloader.c **** 
1379:Generated_Source\PSoC5/Bootloader.c **** 
1380:Generated_Source\PSoC5/Bootloader.c ****         /* Calculate checksum of bootloadable image */
1381:Generated_Source\PSoC5/Bootloader.c ****         for(idx = Bootloader_FIRST_APP_BYTE(appId); idx < end; ++idx)
 623              		.loc 1 1381 0
 624 0032 FB79     		ldrb	r3, [r7, #7]	@ zero_extendqisi2
 625 0034 1946     		mov	r1, r3
 626 0036 0320     		movs	r0, #3
 627 0038 FFF7FEFF 		bl	Bootloader_GetMetadata
 628 003c 0346     		mov	r3, r0
 629 003e 0133     		adds	r3, r3, #1
 630 0040 1B02     		lsls	r3, r3, #8
 631 0042 7B61     		str	r3, [r7, #20]
 632 0044 11E0     		b	.L41
 633              	.L43:
 634              	.LBB4:
1382:Generated_Source\PSoC5/Bootloader.c ****         {
1383:Generated_Source\PSoC5/Bootloader.c ****             uint8 CYDATA curByte = Bootloader_GET_CODE_BYTE(idx);
 635              		.loc 1 1383 0
 636 0046 7B69     		ldr	r3, [r7, #20]
 637 0048 1B78     		ldrb	r3, [r3]
 638 004a FB72     		strb	r3, [r7, #11]
1384:Generated_Source\PSoC5/Bootloader.c **** 
1385:Generated_Source\PSoC5/Bootloader.c ****             if((curByte != 0u) && (curByte != 0xFFu))
 639              		.loc 1 1385 0
 640 004c FB7A     		ldrb	r3, [r7, #11]	@ zero_extendqisi2
 641 004e 002B     		cmp	r3, #0
 642 0050 04D0     		beq	.L42
 643              		.loc 1 1385 0 is_stmt 0 discriminator 1
 644 0052 FB7A     		ldrb	r3, [r7, #11]	@ zero_extendqisi2
 645 0054 FF2B     		cmp	r3, #255
 646 0056 01D0     		beq	.L42
1386:Generated_Source\PSoC5/Bootloader.c ****             {
1387:Generated_Source\PSoC5/Bootloader.c ****                 valid = 1u;
 647              		.loc 1 1387 0 is_stmt 1
 648 0058 0123     		movs	r3, #1
 649 005a FB74     		strb	r3, [r7, #19]
 650              	.L42:
1388:Generated_Source\PSoC5/Bootloader.c ****             }
1389:Generated_Source\PSoC5/Bootloader.c **** 
1390:Generated_Source\PSoC5/Bootloader.c ****             calcedChecksum += curByte;
 651              		.loc 1 1390 0 discriminator 2
 652 005c BA7C     		ldrb	r2, [r7, #18]
 653 005e FB7A     		ldrb	r3, [r7, #11]
 654 0060 1344     		add	r3, r3, r2
 655 0062 BB74     		strb	r3, [r7, #18]
 656              	.LBE4:
ARM GAS  C:\Users\jobaek\AppData\Local\Temp\ccG7Gfbb.s 			page 37


1381:Generated_Source\PSoC5/Bootloader.c ****         {
 657              		.loc 1 1381 0 discriminator 2
 658 0064 7B69     		ldr	r3, [r7, #20]
 659 0066 0133     		adds	r3, r3, #1
 660 0068 7B61     		str	r3, [r7, #20]
 661              	.L41:
1381:Generated_Source\PSoC5/Bootloader.c ****         {
 662              		.loc 1 1381 0 is_stmt 0 discriminator 1
 663 006a 7A69     		ldr	r2, [r7, #20]
 664 006c FB68     		ldr	r3, [r7, #12]
 665 006e 9A42     		cmp	r2, r3
 666 0070 E9D3     		bcc	.L43
1391:Generated_Source\PSoC5/Bootloader.c ****         }
1392:Generated_Source\PSoC5/Bootloader.c **** 
1393:Generated_Source\PSoC5/Bootloader.c **** 
1394:Generated_Source\PSoC5/Bootloader.c ****         /***************************************************************************
1395:Generated_Source\PSoC5/Bootloader.c ****         * We do not compute a checksum over the meta data section, so no need to
1396:Generated_Source\PSoC5/Bootloader.c ****         * subtract App Verified or App Active information here like we do when
1397:Generated_Source\PSoC5/Bootloader.c ****         * verifying a row.
1398:Generated_Source\PSoC5/Bootloader.c ****         ***************************************************************************/
1399:Generated_Source\PSoC5/Bootloader.c **** 
1400:Generated_Source\PSoC5/Bootloader.c ****         #if((!CY_PSOC4) && (CYDEV_ECC_ENABLE == 0u))
1401:Generated_Source\PSoC5/Bootloader.c **** 
1402:Generated_Source\PSoC5/Bootloader.c ****             /* Add ECC data to checksum */
1403:Generated_Source\PSoC5/Bootloader.c ****             idx = ((Bootloader_FIRST_APP_BYTE(appId)) >> 3u);
 667              		.loc 1 1403 0 is_stmt 1
 668 0072 FB79     		ldrb	r3, [r7, #7]	@ zero_extendqisi2
 669 0074 1946     		mov	r1, r3
 670 0076 0320     		movs	r0, #3
 671 0078 FFF7FEFF 		bl	Bootloader_GetMetadata
 672 007c 0346     		mov	r3, r0
 673 007e 0133     		adds	r3, r3, #1
 674 0080 1B02     		lsls	r3, r3, #8
 675 0082 DB08     		lsrs	r3, r3, #3
 676 0084 7B61     		str	r3, [r7, #20]
1404:Generated_Source\PSoC5/Bootloader.c **** 
1405:Generated_Source\PSoC5/Bootloader.c ****             /* Flash may run into meta data, so ECC does not use full row */
1406:Generated_Source\PSoC5/Bootloader.c ****             end = (end == (CY_FLASH_SIZE - Bootloader_MD_SIZEOF))
1407:Generated_Source\PSoC5/Bootloader.c ****                 ? (CY_FLASH_SIZE >> 3u)
1408:Generated_Source\PSoC5/Bootloader.c ****                 : (end >> 3u);
 677              		.loc 1 1408 0
 678 0086 FB68     		ldr	r3, [r7, #12]
 679 0088 174A     		ldr	r2, .L51
 680 008a 9342     		cmp	r3, r2
 681 008c 02D0     		beq	.L44
 682              		.loc 1 1408 0 is_stmt 0 discriminator 1
 683 008e FB68     		ldr	r3, [r7, #12]
 684 0090 DB08     		lsrs	r3, r3, #3
 685 0092 01E0     		b	.L45
 686              	.L44:
 687              		.loc 1 1408 0 discriminator 2
 688 0094 4FF40043 		mov	r3, #32768
 689              	.L45:
1406:Generated_Source\PSoC5/Bootloader.c ****                 ? (CY_FLASH_SIZE >> 3u)
 690              		.loc 1 1406 0 is_stmt 1
 691 0098 FB60     		str	r3, [r7, #12]
1409:Generated_Source\PSoC5/Bootloader.c **** 
ARM GAS  C:\Users\jobaek\AppData\Local\Temp\ccG7Gfbb.s 			page 38


1410:Generated_Source\PSoC5/Bootloader.c ****             for (; idx < end; ++idx)
 692              		.loc 1 1410 0
 693 009a 0AE0     		b	.L46
 694              	.L47:
1411:Generated_Source\PSoC5/Bootloader.c ****             {
1412:Generated_Source\PSoC5/Bootloader.c ****                 calcedChecksum += CY_GET_XTND_REG8((volatile uint8 *)(CYDEV_ECC_BASE + idx));
 695              		.loc 1 1412 0 discriminator 2
 696 009c 7B69     		ldr	r3, [r7, #20]
 697 009e 03F19043 		add	r3, r3, #1207959552
 698 00a2 1B78     		ldrb	r3, [r3]
 699 00a4 DAB2     		uxtb	r2, r3
 700 00a6 BB7C     		ldrb	r3, [r7, #18]
 701 00a8 1344     		add	r3, r3, r2
 702 00aa BB74     		strb	r3, [r7, #18]
1410:Generated_Source\PSoC5/Bootloader.c ****             {
 703              		.loc 1 1410 0 discriminator 2
 704 00ac 7B69     		ldr	r3, [r7, #20]
 705 00ae 0133     		adds	r3, r3, #1
 706 00b0 7B61     		str	r3, [r7, #20]
 707              	.L46:
1410:Generated_Source\PSoC5/Bootloader.c ****             {
 708              		.loc 1 1410 0 is_stmt 0 discriminator 1
 709 00b2 7A69     		ldr	r2, [r7, #20]
 710 00b4 FB68     		ldr	r3, [r7, #12]
 711 00b6 9A42     		cmp	r2, r3
 712 00b8 F0D3     		bcc	.L47
1413:Generated_Source\PSoC5/Bootloader.c ****             }
1414:Generated_Source\PSoC5/Bootloader.c **** 
1415:Generated_Source\PSoC5/Bootloader.c ****         #endif  /* ((!CY_PSOC4) && (CYDEV_ECC_ENABLE == 0u)) */
1416:Generated_Source\PSoC5/Bootloader.c **** 
1417:Generated_Source\PSoC5/Bootloader.c ****         calcedChecksum = ( uint8 )1u + ( uint8 )(~calcedChecksum);
 713              		.loc 1 1417 0 is_stmt 1
 714 00ba BB7C     		ldrb	r3, [r7, #18]
 715 00bc 5B42     		negs	r3, r3
 716 00be BB74     		strb	r3, [r7, #18]
1418:Generated_Source\PSoC5/Bootloader.c **** 
1419:Generated_Source\PSoC5/Bootloader.c ****         if((calcedChecksum != Bootloader_GetMetadata(Bootloader_GET_BTLDB_CHECKSUM, appId)) ||
 717              		.loc 1 1419 0
 718 00c0 BC7C     		ldrb	r4, [r7, #18]	@ zero_extendqisi2
 719 00c2 FB79     		ldrb	r3, [r7, #7]	@ zero_extendqisi2
 720 00c4 1946     		mov	r1, r3
 721 00c6 0120     		movs	r0, #1
 722 00c8 FFF7FEFF 		bl	Bootloader_GetMetadata
 723 00cc 0346     		mov	r3, r0
 724 00ce 9C42     		cmp	r4, r3
 725 00d0 02D1     		bne	.L48
 726              		.loc 1 1419 0 is_stmt 0 discriminator 1
 727 00d2 FB7C     		ldrb	r3, [r7, #19]	@ zero_extendqisi2
 728 00d4 002B     		cmp	r3, #0
 729 00d6 01D1     		bne	.L49
 730              	.L48:
1420:Generated_Source\PSoC5/Bootloader.c ****            (0u == valid))
1421:Generated_Source\PSoC5/Bootloader.c ****         {
1422:Generated_Source\PSoC5/Bootloader.c ****             return(CYRET_BAD_DATA);
 731              		.loc 1 1422 0 is_stmt 1
 732 00d8 0623     		movs	r3, #6
 733 00da 00E0     		b	.L50
ARM GAS  C:\Users\jobaek\AppData\Local\Temp\ccG7Gfbb.s 			page 39


 734              	.L49:
1423:Generated_Source\PSoC5/Bootloader.c ****         }
1424:Generated_Source\PSoC5/Bootloader.c **** 
1425:Generated_Source\PSoC5/Bootloader.c **** 
1426:Generated_Source\PSoC5/Bootloader.c ****         #if(0u != Bootloader_FAST_APP_VALIDATION)
1427:Generated_Source\PSoC5/Bootloader.c ****             Bootloader_SetFlashByte((uint32) Bootloader_MD_BTLDB_VERIFIED_OFFSET(appId),
1428:Generated_Source\PSoC5/Bootloader.c ****                                           Bootloader_MD_BTLDB_IS_VERIFIED);
1429:Generated_Source\PSoC5/Bootloader.c ****         #endif  /* (0u != Bootloader_FAST_APP_VALIDATION) */
1430:Generated_Source\PSoC5/Bootloader.c **** 
1431:Generated_Source\PSoC5/Bootloader.c **** 
1432:Generated_Source\PSoC5/Bootloader.c ****         return(CYRET_SUCCESS);
 735              		.loc 1 1432 0
 736 00dc 0023     		movs	r3, #0
 737              	.L50:
1433:Generated_Source\PSoC5/Bootloader.c **** }
 738              		.loc 1 1433 0
 739 00de 1846     		mov	r0, r3
 740 00e0 1C37     		adds	r7, r7, #28
 741              		.cfi_def_cfa_offset 12
 742 00e2 BD46     		mov	sp, r7
 743              		.cfi_def_cfa_register 13
 744              		@ sp needed
 745 00e4 90BD     		pop	{r4, r7, pc}
 746              	.L52:
 747 00e6 00BF     		.align	2
 748              	.L51:
 749 00e8 C0FF0300 		.word	262080
 750              		.cfi_endproc
 751              	.LFE71:
 752              		.size	Bootloader_ValidateBootloadable, .-Bootloader_ValidateBootloadable
 753              		.section	.rodata
 754              		.align	2
 755              	.LC0:
 756 0000 6910162E 		.word	773197929
 757 0004 00       		.byte	0
 758 0005 3C       		.byte	60
 759 0006 01       		.byte	1
 760 0007 01       		.byte	1
 761              		.section	.text.Bootloader_HostLink,"ax",%progbits
 762              		.align	2
 763              		.thumb
 764              		.thumb_func
 765              		.type	Bootloader_HostLink, %function
 766              	Bootloader_HostLink:
 767              	.LFB72:
1434:Generated_Source\PSoC5/Bootloader.c **** 
1435:Generated_Source\PSoC5/Bootloader.c **** #if (((0u != Bootloader_DUAL_APP_BOOTLOADER) && (CYDEV_PROJ_TYPE != CYDEV_PROJ_TYPE_LAUNCHER)) \
1436:Generated_Source\PSoC5/Bootloader.c ****                                           || (CYDEV_PROJ_TYPE == CYDEV_PROJ_TYPE_LOADABLEANDBOOTLOA
1437:Generated_Source\PSoC5/Bootloader.c **** /*******************************************************************************
1438:Generated_Source\PSoC5/Bootloader.c **** * Function Name: Bootloader_CheckImage
1439:Generated_Source\PSoC5/Bootloader.c **** ********************************************************************************
1440:Generated_Source\PSoC5/Bootloader.c **** * \internal
1441:Generated_Source\PSoC5/Bootloader.c **** *
1442:Generated_Source\PSoC5/Bootloader.c **** * \brief 
1443:Generated_Source\PSoC5/Bootloader.c **** *   This API checks if there is a permission to write to a certain image.
1444:Generated_Source\PSoC5/Bootloader.c **** *   It is used to check the active application as well as to check the Golden image.
1445:Generated_Source\PSoC5/Bootloader.c **** *
ARM GAS  C:\Users\jobaek\AppData\Local\Temp\ccG7Gfbb.s 			page 40


1446:Generated_Source\PSoC5/Bootloader.c **** * \param 
1447:Generated_Source\PSoC5/Bootloader.c **** *   appNumber - The application number.
1448:Generated_Source\PSoC5/Bootloader.c **** * \param 
1449:Generated_Source\PSoC5/Bootloader.c **** *   arrayNumber - The number of the flash page to write to.
1450:Generated_Source\PSoC5/Bootloader.c **** * \param 
1451:Generated_Source\PSoC5/Bootloader.c **** *   row - The row number to write to the flash.
1452:Generated_Source\PSoC5/Bootloader.c **** * \param 
1453:Generated_Source\PSoC5/Bootloader.c **** *   rowNumInArray - The row number inside the array.
1454:Generated_Source\PSoC5/Bootloader.c **** *
1455:Generated_Source\PSoC5/Bootloader.c **** * \return 
1456:Generated_Source\PSoC5/Bootloader.c **** *   CYRET_SUCCESS - Writing to a specified image is permitted.
1457:Generated_Source\PSoC5/Bootloader.c **** *   Bootloader_ERR_ACTIVE - Writing to this image is NOT permitted
1458:Generated_Source\PSoC5/Bootloader.c **** *   because the specified image is active or Golden.
1459:Generated_Source\PSoC5/Bootloader.c **** *
1460:Generated_Source\PSoC5/Bootloader.c **** * \endinternal
1461:Generated_Source\PSoC5/Bootloader.c **** *******************************************************************************/
1462:Generated_Source\PSoC5/Bootloader.c **** static uint8 Bootloader_CheckImage(uint8 appNumber, uint8 arrayNumber, uint16 row, uint16 rowNumInA
1463:Generated_Source\PSoC5/Bootloader.c ****                                          
1464:Generated_Source\PSoC5/Bootloader.c **** {
1465:Generated_Source\PSoC5/Bootloader.c ****     uint16 CYDATA firstRow = 0xFFFFu;
1466:Generated_Source\PSoC5/Bootloader.c ****     uint16 CYDATA lastRow = 0xFFFFu;
1467:Generated_Source\PSoC5/Bootloader.c ****     uint8 CYDATA ackCode = CYRET_SUCCESS;
1468:Generated_Source\PSoC5/Bootloader.c **** 
1469:Generated_Source\PSoC5/Bootloader.c ****     if (appNumber < Bootloader_MAX_NUM_OF_BTLDB)
1470:Generated_Source\PSoC5/Bootloader.c ****     {    
1471:Generated_Source\PSoC5/Bootloader.c ****         /*******************************************************************************
1472:Generated_Source\PSoC5/Bootloader.c ****         * For the first Bootloadable application - gets the last flash row occupied by
1473:Generated_Source\PSoC5/Bootloader.c ****         * the Bootloader application image:
1474:Generated_Source\PSoC5/Bootloader.c ****         *  ---------------------------------------------------------------------------
1475:Generated_Source\PSoC5/Bootloader.c ****         * | Bootloader   | Bootloadable # 1 |     | Bootloadable # 2 |     | M2 | M1 |
1476:Generated_Source\PSoC5/Bootloader.c ****         *  ---------------------------------------------------------------------------
1477:Generated_Source\PSoC5/Bootloader.c ****         * |<--firstRow---|>
1478:Generated_Source\PSoC5/Bootloader.c ****         *
1479:Generated_Source\PSoC5/Bootloader.c ****         * For the second Bootloadable application - gets the last flash row occupied by
1480:Generated_Source\PSoC5/Bootloader.c ****         * the first Bootloadable application:
1481:Generated_Source\PSoC5/Bootloader.c ****         *  ---------------------------------------------------------------------------
1482:Generated_Source\PSoC5/Bootloader.c ****         * | Bootloader   | Bootloadable # 1 |     | Bootloadable # 2 |     | M2 | M1 |
1483:Generated_Source\PSoC5/Bootloader.c ****         *  ---------------------------------------------------------------------------
1484:Generated_Source\PSoC5/Bootloader.c ****         * |<-------------firstRow-----------------|>
1485:Generated_Source\PSoC5/Bootloader.c ****         *
1486:Generated_Source\PSoC5/Bootloader.c ****         * Incremented by 1 to get the first available row.
1487:Generated_Source\PSoC5/Bootloader.c ****         *
1488:Generated_Source\PSoC5/Bootloader.c ****         * NOTE M1 and M2 stand for metadata # 1 and metadata # 2, metadata 
1489:Generated_Source\PSoC5/Bootloader.c ****         * sections for the 1st and 2nd Bootloadable applications.
1490:Generated_Source\PSoC5/Bootloader.c ****         *******************************************************************************/
1491:Generated_Source\PSoC5/Bootloader.c ****         firstRow = (uint16) 1u +
1492:Generated_Source\PSoC5/Bootloader.c ****             (uint16) Bootloader_GetMetadata(Bootloader_GET_BTLDR_LAST_ROW,  appNumber);
1493:Generated_Source\PSoC5/Bootloader.c **** 
1494:Generated_Source\PSoC5/Bootloader.c ****     
1495:Generated_Source\PSoC5/Bootloader.c ****     /***********************************************************************************
1496:Generated_Source\PSoC5/Bootloader.c ****     * If this is the Upgradable Stack use case, then Stack application and User application
1497:Generated_Source\PSoC5/Bootloader.c ****     * do not occupy the half of flash each, as the other applications do for Classic Dual-app 
1498:Generated_Source\PSoC5/Bootloader.c ****     * and the general Launcher-Combination use cases. Another approach for calculation 
1499:Generated_Source\PSoC5/Bootloader.c ****     * lastRow is used for the Upgradable Stack use case. See Bootloader datasheet for more 
1500:Generated_Source\PSoC5/Bootloader.c ****     * details (use cases description).
1501:Generated_Source\PSoC5/Bootloader.c ****     ***********************************************************************************/
1502:Generated_Source\PSoC5/Bootloader.c **** 
ARM GAS  C:\Users\jobaek\AppData\Local\Temp\ccG7Gfbb.s 			page 41


1503:Generated_Source\PSoC5/Bootloader.c ****     
1504:Generated_Source\PSoC5/Bootloader.c ****     #if ((CYDEV_PROJ_TYPE == CYDEV_PROJ_TYPE_LOADABLEANDBOOTLOADER) && \
1505:Generated_Source\PSoC5/Bootloader.c ****          (0u != Bootloader_IS_STACK_APPLICATION))
1506:Generated_Source\PSoC5/Bootloader.c ****         /*******************************************************************************
1507:Generated_Source\PSoC5/Bootloader.c ****         * The Upgradable Stack application case implies that only this application can 
1508:Generated_Source\PSoC5/Bootloader.c ****         * perform a bootloading operation (the other one can't). So a verification 
1509:Generated_Source\PSoC5/Bootloader.c ****         * will be run to check if the Stack application is not overwritten. 
1510:Generated_Source\PSoC5/Bootloader.c ****         *
1511:Generated_Source\PSoC5/Bootloader.c ****         * The Stack application is defined as the first application.
1512:Generated_Source\PSoC5/Bootloader.c ****           * The User application is defined as the second application.
1513:Generated_Source\PSoC5/Bootloader.c ****         *
1514:Generated_Source\PSoC5/Bootloader.c ****         * This check is intended for the case when the Stack application is active
1515:Generated_Source\PSoC5/Bootloader.c ****         * and performs bootloading for the User application:
1516:Generated_Source\PSoC5/Bootloader.c ****         *  ---------------------------------------------------------------------------
1517:Generated_Source\PSoC5/Bootloader.c ****         * |   Launcher   |       Stack     |           User app            | M2 | M1 |
1518:Generated_Source\PSoC5/Bootloader.c ****         *  ---------------------------------------------------------------------------
1519:Generated_Source\PSoC5/Bootloader.c ****         *                |<-------------------lastRow -------------------->|
1520:Generated_Source\PSoC5/Bootloader.c ****         *******************************************************************************/
1521:Generated_Source\PSoC5/Bootloader.c ****         lastRow = (uint16) Bootloader_GetMetadata(Bootloader_GET_BTLDR_LAST_ROW,
1522:Generated_Source\PSoC5/Bootloader.c ****                                                         Bootloader_USER_APPLICATION);    
1523:Generated_Source\PSoC5/Bootloader.c ****     
1524:Generated_Source\PSoC5/Bootloader.c ****     #else /* Classic Dual-app and the general Launcher-Combination use cases */    
1525:Generated_Source\PSoC5/Bootloader.c ****         /*******************************************************************************
1526:Generated_Source\PSoC5/Bootloader.c ****         * The number of flash rows available for both Bootloadable applications:
1527:Generated_Source\PSoC5/Bootloader.c ****         *
1528:Generated_Source\PSoC5/Bootloader.c ****         * The first Bootloadable application is active:
1529:Generated_Source\PSoC5/Bootloader.c ****         *  ---------------------------------------------------------------------------
1530:Generated_Source\PSoC5/Bootloader.c ****         * | Bootloader   | Bootloadable # 1 |     | Bootloadable # 2 |     | M2 | M1 |
1531:Generated_Source\PSoC5/Bootloader.c ****         *  ---------------------------------------------------------------------------
1532:Generated_Source\PSoC5/Bootloader.c ****         *                |<-------------------lastRow -------------------->|
1533:Generated_Source\PSoC5/Bootloader.c ****         *
1534:Generated_Source\PSoC5/Bootloader.c ****         * The second Bootloadable application is active:
1535:Generated_Source\PSoC5/Bootloader.c ****         *  ---------------------------------------------------------------------------
1536:Generated_Source\PSoC5/Bootloader.c ****         * | Bootloader   | Bootloadable # 1 |     | Bootloadable # 2 |     | M2 | M1 |
1537:Generated_Source\PSoC5/Bootloader.c ****         *  ---------------------------------------------------------------------------
1538:Generated_Source\PSoC5/Bootloader.c ****         *                                         |<-------lastRow-------->|
1539:Generated_Source\PSoC5/Bootloader.c ****         *******************************************************************************/
1540:Generated_Source\PSoC5/Bootloader.c ****         lastRow = (uint16)(CY_FLASH_NUMBER_ROWS - Bootloader_NUMBER_OF_METADATA_ROWS - firstRow);
1541:Generated_Source\PSoC5/Bootloader.c **** 
1542:Generated_Source\PSoC5/Bootloader.c ****         /*******************************************************************************
1543:Generated_Source\PSoC5/Bootloader.c ****         * The number of flash rows available for the active Bootloadable application:
1544:Generated_Source\PSoC5/Bootloader.c ****         *
1545:Generated_Source\PSoC5/Bootloader.c ****         * The first Bootloadable application is active: the number of flash rows available
1546:Generated_Source\PSoC5/Bootloader.c ****         * for both Bootloadable applications should be divided by 2, meaning 2 
1547:Generated_Source\PSoC5/Bootloader.c ****         * Bootloadable applications should fit there.
1548:Generated_Source\PSoC5/Bootloader.c ****         *
1549:Generated_Source\PSoC5/Bootloader.c ****         * The second Bootloadable application is active: the number of flash rows available
1550:Generated_Source\PSoC5/Bootloader.c ****         * for both Bootloadable applications should be divided by 1, meaning 1 
1551:Generated_Source\PSoC5/Bootloader.c ****         * Bootloadable application should fit there.
1552:Generated_Source\PSoC5/Bootloader.c ****         *******************************************************************************/
1553:Generated_Source\PSoC5/Bootloader.c ****         lastRow = (uint16)(lastRow / (uint8)(Bootloader_NUMBER_OF_BTLDBLE_APPS - appNumber));
1554:Generated_Source\PSoC5/Bootloader.c **** 
1555:Generated_Source\PSoC5/Bootloader.c ****         /*******************************************************************************
1556:Generated_Source\PSoC5/Bootloader.c ****         * The last row equals the first row plus the number of rows available for
1557:Generated_Source\PSoC5/Bootloader.c ****         * each Bootloadable application. That gives the flash row number right
1558:Generated_Source\PSoC5/Bootloader.c ****         * beyond the valid range, so we subtract 1.
1559:Generated_Source\PSoC5/Bootloader.c ****         *
ARM GAS  C:\Users\jobaek\AppData\Local\Temp\ccG7Gfbb.s 			page 42


1560:Generated_Source\PSoC5/Bootloader.c ****         * The first Bootloadable application is active:
1561:Generated_Source\PSoC5/Bootloader.c ****         *  ---------------------------------------------------------------------------
1562:Generated_Source\PSoC5/Bootloader.c ****         * | Bootloader   | Bootloadable # 1 |     | Bootloadable # 2 |     | M2 | M1 |
1563:Generated_Source\PSoC5/Bootloader.c ****         *  ---------------------------------------------------------------------------
1564:Generated_Source\PSoC5/Bootloader.c ****         * |<----------------lastRow ------------->|
1565:Generated_Source\PSoC5/Bootloader.c ****         *
1566:Generated_Source\PSoC5/Bootloader.c ****         * The second Bootloadable application is active:
1567:Generated_Source\PSoC5/Bootloader.c ****         *  ---------------------------------------------------------------------------
1568:Generated_Source\PSoC5/Bootloader.c ****         * | Bootloader   | Bootloadable # 1 |     | Bootloadable # 2 |     | M2 | M1 |
1569:Generated_Source\PSoC5/Bootloader.c ****         *  ---------------------------------------------------------------------------
1570:Generated_Source\PSoC5/Bootloader.c ****         * |<-----------------------------lastRow-------------------------->|
1571:Generated_Source\PSoC5/Bootloader.c ****         *******************************************************************************/
1572:Generated_Source\PSoC5/Bootloader.c ****         lastRow = (firstRow + lastRow) - 1u;
1573:Generated_Source\PSoC5/Bootloader.c ****     #endif /*(0u == Bootloader_IS_STACK_APPLICATION)*/    
1574:Generated_Source\PSoC5/Bootloader.c **** 
1575:Generated_Source\PSoC5/Bootloader.c ****         /*******************************************************************************
1576:Generated_Source\PSoC5/Bootloader.c ****         * 1. Refuses to write a row within the range of the active application.
1577:Generated_Source\PSoC5/Bootloader.c ****         *
1578:Generated_Source\PSoC5/Bootloader.c ****         *  The first Bootloadable application is active:
1579:Generated_Source\PSoC5/Bootloader.c ****         *   ---------------------------------------------------------------------------
1580:Generated_Source\PSoC5/Bootloader.c ****         *  | Bootloader   | Bootloadable # 1 |     | Bootloadable # 2 |     | M2 | M1 |
1581:Generated_Source\PSoC5/Bootloader.c ****         *   ---------------------------------------------------------------------------
1582:Generated_Source\PSoC5/Bootloader.c ****         *  |<----------------lastRow ------------->|
1583:Generated_Source\PSoC5/Bootloader.c ****         *  |<--firstRow---|>
1584:Generated_Source\PSoC5/Bootloader.c ****         *                 |<-------protected------>|
1585:Generated_Source\PSoC5/Bootloader.c ****         *
1586:Generated_Source\PSoC5/Bootloader.c ****         *  the second Bootloadable application is active:
1587:Generated_Source\PSoC5/Bootloader.c ****         *   ---------------------------------------------------------------------------
1588:Generated_Source\PSoC5/Bootloader.c ****         *  | Bootloader   | Bootloadable # 1 |     | Bootloadable # 2 |     | M2 | M1 |
1589:Generated_Source\PSoC5/Bootloader.c ****         *   ---------------------------------------------------------------------------
1590:Generated_Source\PSoC5/Bootloader.c ****         *  |<-------------firstRow-----------------|>
1591:Generated_Source\PSoC5/Bootloader.c ****         *  |<-----------------------------lastRow-------------------------->|
1592:Generated_Source\PSoC5/Bootloader.c ****         *                                          |<-------protected------>|
1593:Generated_Source\PSoC5/Bootloader.c ****         *
1594:Generated_Source\PSoC5/Bootloader.c ****         * 2. Refuses to write to the row that contains metadata of the active
1595:Generated_Source\PSoC5/Bootloader.c ****         *    Bootloadable application.
1596:Generated_Source\PSoC5/Bootloader.c ****         *
1597:Generated_Source\PSoC5/Bootloader.c ****         *******************************************************************************/
1598:Generated_Source\PSoC5/Bootloader.c ****         if (((row >= firstRow) && (row <= lastRow)) || ((arrayNumber == Bootloader_MD_FLASH_ARRAY_N
1599:Generated_Source\PSoC5/Bootloader.c ****             (rowNumInArray == Bootloader_MD_ROW_NUM(appNumber))))
1600:Generated_Source\PSoC5/Bootloader.c ****         {
1601:Generated_Source\PSoC5/Bootloader.c ****             ackCode = Bootloader_ERR_ACTIVE;
1602:Generated_Source\PSoC5/Bootloader.c ****         }
1603:Generated_Source\PSoC5/Bootloader.c ****     }
1604:Generated_Source\PSoC5/Bootloader.c ****     else /*(appNumber < Bootloader_MAX_NUM_OF_BTLDB)*/
1605:Generated_Source\PSoC5/Bootloader.c ****     {
1606:Generated_Source\PSoC5/Bootloader.c ****         ackCode = Bootloader_ERR_ACTIVE;
1607:Generated_Source\PSoC5/Bootloader.c ****     }
1608:Generated_Source\PSoC5/Bootloader.c ****     
1609:Generated_Source\PSoC5/Bootloader.c ****     return ackCode;
1610:Generated_Source\PSoC5/Bootloader.c **** }
1611:Generated_Source\PSoC5/Bootloader.c **** #endif  /* (0u != Bootloader_DUAL_APP_BOOTLOADER) || \
1612:Generated_Source\PSoC5/Bootloader.c ****            (CYDEV_PROJ_TYPE == CYDEV_PROJ_TYPE_LOADABLEANDBOOTLOADER) */
1613:Generated_Source\PSoC5/Bootloader.c **** 
1614:Generated_Source\PSoC5/Bootloader.c **** #if (CYDEV_PROJ_TYPE != CYDEV_PROJ_TYPE_LAUNCHER)
1615:Generated_Source\PSoC5/Bootloader.c **** /*******************************************************************************
1616:Generated_Source\PSoC5/Bootloader.c **** * Function Name: Bootloader_HostLink
ARM GAS  C:\Users\jobaek\AppData\Local\Temp\ccG7Gfbb.s 			page 43


1617:Generated_Source\PSoC5/Bootloader.c **** ****************************************************************************//**
1618:Generated_Source\PSoC5/Bootloader.c **** *
1619:Generated_Source\PSoC5/Bootloader.c **** * \brief
1620:Generated_Source\PSoC5/Bootloader.c **** *  Causes the Bootloader to attempt to read data being transmitted by the
1621:Generated_Source\PSoC5/Bootloader.c **** *  host application.  If data is sent from the host, this establishes the
1622:Generated_Source\PSoC5/Bootloader.c **** *  communication interface to process all requests.
1623:Generated_Source\PSoC5/Bootloader.c **** *
1624:Generated_Source\PSoC5/Bootloader.c **** * \param
1625:Generated_Source\PSoC5/Bootloader.c **** *  timeOut:
1626:Generated_Source\PSoC5/Bootloader.c **** *   The amount of time to listen for data before giving up. The timeout is
1627:Generated_Source\PSoC5/Bootloader.c **** *   measured in 10s of ms.  Use 0 for an infinite wait.
1628:Generated_Source\PSoC5/Bootloader.c **** * 
1629:Generated_Source\PSoC5/Bootloader.c **** * \details
1630:Generated_Source\PSoC5/Bootloader.c **** *  This function is public only for Launcher-Combination architecture. For 
1631:Generated_Source\PSoC5/Bootloader.c **** *  Classic Bootloader it is static, meaning private. 
1632:Generated_Source\PSoC5/Bootloader.c **** *******************************************************************************/
1633:Generated_Source\PSoC5/Bootloader.c **** #if (CYDEV_PROJ_TYPE != CYDEV_PROJ_TYPE_LOADABLEANDBOOTLOADER)
1634:Generated_Source\PSoC5/Bootloader.c **** static void Bootloader_HostLink(uint8 timeOut) CYLARGE 
1635:Generated_Source\PSoC5/Bootloader.c ****                    
1636:Generated_Source\PSoC5/Bootloader.c **** #else
1637:Generated_Source\PSoC5/Bootloader.c **** void Bootloader_HostLink(uint8 timeOut) CYLARGE 
1638:Generated_Source\PSoC5/Bootloader.c ****                    
1639:Generated_Source\PSoC5/Bootloader.c **** #endif /*(CYDEV_PROJ_TYPE != CYDEV_PROJ_TYPE_LOADABLEANDBOOTLOADER)*/    
1640:Generated_Source\PSoC5/Bootloader.c **** {
 768              		.loc 1 1640 0
 769              		.cfi_startproc
 770              		@ args = 0, pretend = 0, frame = 680
 771              		@ frame_needed = 1, uses_anonymous_args = 0
 772 0000 80B5     		push	{r7, lr}
 773              		.cfi_def_cfa_offset 8
 774              		.cfi_offset 7, -8
 775              		.cfi_offset 14, -4
 776 0002 ADF52A7D 		sub	sp, sp, #680
 777              		.cfi_def_cfa_offset 688
 778 0006 00AF     		add	r7, sp, #0
 779              		.cfi_def_cfa_register 7
 780 0008 0246     		mov	r2, r0
 781 000a FB1D     		adds	r3, r7, #7
 782 000c 1A70     		strb	r2, [r3]
1641:Generated_Source\PSoC5/Bootloader.c ****     uint16    CYDATA numberRead;
1642:Generated_Source\PSoC5/Bootloader.c ****     uint16    CYDATA rspSize;
1643:Generated_Source\PSoC5/Bootloader.c ****     uint8     CYDATA ackCode;
1644:Generated_Source\PSoC5/Bootloader.c ****     uint16    CYDATA pktChecksum;
1645:Generated_Source\PSoC5/Bootloader.c ****     cystatus  CYDATA readStat;
1646:Generated_Source\PSoC5/Bootloader.c ****     uint16    CYDATA pktSize    = 0u;
 783              		.loc 1 1646 0
 784 000e 0023     		movs	r3, #0
 785 0010 A7F8A232 		strh	r3, [r7, #674]	@ movhi
1647:Generated_Source\PSoC5/Bootloader.c ****     uint8     CYDATA timeOutCnt = 10u;
 786              		.loc 1 1647 0
 787 0014 0A23     		movs	r3, #10
 788 0016 87F8A132 		strb	r3, [r7, #673]
1648:Generated_Source\PSoC5/Bootloader.c **** 
1649:Generated_Source\PSoC5/Bootloader.c ****     #if(0u != Bootloader_FAST_APP_VALIDATION)
1650:Generated_Source\PSoC5/Bootloader.c ****         uint8 CYDATA clearedMetaData = 0u;
1651:Generated_Source\PSoC5/Bootloader.c ****     #endif  /* (0u != Bootloader_FAST_APP_VALIDATION) */
1652:Generated_Source\PSoC5/Bootloader.c **** 
ARM GAS  C:\Users\jobaek\AppData\Local\Temp\ccG7Gfbb.s 			page 44


1653:Generated_Source\PSoC5/Bootloader.c **** #if (CYDEV_PROJ_TYPE == CYDEV_PROJ_TYPE_LOADABLEANDBOOTLOADER)
1654:Generated_Source\PSoC5/Bootloader.c ****     static  CYBIT communicationState = Bootloader_COMMUNICATION_STATE_IDLE; 
1655:Generated_Source\PSoC5/Bootloader.c ****     static uint16 CYDATA dataOffset = 0u; 
1656:Generated_Source\PSoC5/Bootloader.c ****     uint16  CYDATA btldrLastRow = 0xFFFFu;
1657:Generated_Source\PSoC5/Bootloader.c ****     uint8 needToCopyFlag = 0u;
1658:Generated_Source\PSoC5/Bootloader.c ****     uint32 app2StartAddress = Bootloader_GetMetadata(Bootloader_GET_BTLDB_ADDR, 
1659:Generated_Source\PSoC5/Bootloader.c ****                               Bootloader_MD_BTLDB_ACTIVE_1);
1660:Generated_Source\PSoC5/Bootloader.c **** #else
1661:Generated_Source\PSoC5/Bootloader.c ****     CYBIT     communicationState = Bootloader_COMMUNICATION_STATE_IDLE;
 789              		.loc 1 1661 0
 790 001a 0023     		movs	r3, #0
 791 001c 87F8A032 		strb	r3, [r7, #672]
1662:Generated_Source\PSoC5/Bootloader.c ****     uint16 CYDATA dataOffset = 0u; 
 792              		.loc 1 1662 0
 793 0020 0023     		movs	r3, #0
 794 0022 A7F89E32 		strh	r3, [r7, #670]	@ movhi
1663:Generated_Source\PSoC5/Bootloader.c **** #endif /*CYDEV_PROJ_TYPE == CYDEV_PROJ_TYPE_LOADABLEANDBOOTLOADER*/
1664:Generated_Source\PSoC5/Bootloader.c **** 
1665:Generated_Source\PSoC5/Bootloader.c ****     uint8     packetBuffer[Bootloader_SIZEOF_COMMAND_BUFFER];
1666:Generated_Source\PSoC5/Bootloader.c ****     uint8     dataBuffer  [Bootloader_SIZEOF_COMMAND_BUFFER];
1667:Generated_Source\PSoC5/Bootloader.c **** 
1668:Generated_Source\PSoC5/Bootloader.c **** 
1669:Generated_Source\PSoC5/Bootloader.c ****     #if(!CY_PSOC4)
1670:Generated_Source\PSoC5/Bootloader.c ****         #if(0u == Bootloader_FAST_APP_VALIDATION)
1671:Generated_Source\PSoC5/Bootloader.c ****             #if !defined(CY_BOOT_VERSION)
1672:Generated_Source\PSoC5/Bootloader.c **** 
1673:Generated_Source\PSoC5/Bootloader.c ****                 /* Not required with cy_boot 4.20 */
1674:Generated_Source\PSoC5/Bootloader.c ****                 uint8 CYXDATA Bootloader_flashBuffer[Bootloader_FROW_SIZE];
1675:Generated_Source\PSoC5/Bootloader.c **** 
1676:Generated_Source\PSoC5/Bootloader.c ****             #endif /* !defined(CY_BOOT_VERSION) */
1677:Generated_Source\PSoC5/Bootloader.c ****         #endif  /* (0u == Bootloader_FAST_APP_VALIDATION) */
1678:Generated_Source\PSoC5/Bootloader.c ****     #endif  /* (CY_PSOC4) */
1679:Generated_Source\PSoC5/Bootloader.c **** 
1680:Generated_Source\PSoC5/Bootloader.c **** 
1681:Generated_Source\PSoC5/Bootloader.c **** 
1682:Generated_Source\PSoC5/Bootloader.c ****     #if(!CY_PSOC4)
1683:Generated_Source\PSoC5/Bootloader.c ****         #if((0u == Bootloader_FAST_APP_VALIDATION) || \
1684:Generated_Source\PSoC5/Bootloader.c ****             (CYDEV_PROJ_TYPE == CYDEV_PROJ_TYPE_LOADABLEANDBOOTLOADER))
1685:Generated_Source\PSoC5/Bootloader.c **** 
1686:Generated_Source\PSoC5/Bootloader.c ****             /* Initialize flash subsystem for non-PSoC 4 devices */
1687:Generated_Source\PSoC5/Bootloader.c ****             if (CYRET_SUCCESS != CySetTemp())
 795              		.loc 1 1687 0
 796 0026 FFF7FEFF 		bl	CySetTemp
 797 002a 0346     		mov	r3, r0
 798 002c 002B     		cmp	r3, #0
 799 002e 02D0     		beq	.L54
1688:Generated_Source\PSoC5/Bootloader.c ****             {
1689:Generated_Source\PSoC5/Bootloader.c ****                 CyHalt(0x00u);
 800              		.loc 1 1689 0
 801 0030 0020     		movs	r0, #0
 802 0032 FFF7FEFF 		bl	CyHalt
 803              	.L54:
1690:Generated_Source\PSoC5/Bootloader.c ****             }
1691:Generated_Source\PSoC5/Bootloader.c **** 
1692:Generated_Source\PSoC5/Bootloader.c ****         #endif  /* (0u == Bootloader_FAST_APP_VALIDATION) ||
1693:Generated_Source\PSoC5/Bootloader.c ****                    (CYDEV_PROJ_TYPE == CYDEV_PROJ_TYPE_LOADABLEANDBOOTLOADER) */
1694:Generated_Source\PSoC5/Bootloader.c ****     #endif  /* (CY_PSOC4) */
ARM GAS  C:\Users\jobaek\AppData\Local\Temp\ccG7Gfbb.s 			page 45


1695:Generated_Source\PSoC5/Bootloader.c **** 
1696:Generated_Source\PSoC5/Bootloader.c ****     /* Initialize communications channel. */
1697:Generated_Source\PSoC5/Bootloader.c ****     CyBtldrCommStart();
 804              		.loc 1 1697 0
 805 0036 FFF7FEFF 		bl	UART_CyBtldrCommStart
1698:Generated_Source\PSoC5/Bootloader.c **** 
1699:Generated_Source\PSoC5/Bootloader.c ****     /* Enable global interrupts */
1700:Generated_Source\PSoC5/Bootloader.c ****     CyGlobalIntEnable;
 806              		.loc 1 1700 0
 807              		.syntax unified
 808              	@ 1700 "Generated_Source\PSoC5\Bootloader.c" 1
 809 003a 62B6     		CPSIE   i
 810              	@ 0 "" 2
 811              		.thumb
 812              		.syntax unified
 813              	.L124:
1701:Generated_Source\PSoC5/Bootloader.c **** 
1702:Generated_Source\PSoC5/Bootloader.c ****     do
1703:Generated_Source\PSoC5/Bootloader.c ****     {
1704:Generated_Source\PSoC5/Bootloader.c ****         ackCode = CYRET_SUCCESS;
 814              		.loc 1 1704 0
 815 003c 0023     		movs	r3, #0
 816 003e 87F8A532 		strb	r3, [r7, #677]
 817              	.L59:
1705:Generated_Source\PSoC5/Bootloader.c **** 
1706:Generated_Source\PSoC5/Bootloader.c ****         do
1707:Generated_Source\PSoC5/Bootloader.c ****         {
1708:Generated_Source\PSoC5/Bootloader.c ****             readStat = CyBtldrCommRead(packetBuffer,
 818              		.loc 1 1708 0
 819 0042 FB1D     		adds	r3, r7, #7
 820 0044 1B78     		ldrb	r3, [r3]	@ zero_extendqisi2
 821 0046 002B     		cmp	r3, #0
 822 0048 02D0     		beq	.L55
 823              		.loc 1 1708 0 is_stmt 0 discriminator 1
 824 004a FB1D     		adds	r3, r7, #7
 825 004c 1B78     		ldrb	r3, [r3]	@ zero_extendqisi2
 826 004e 00E0     		b	.L56
 827              	.L55:
 828              		.loc 1 1708 0 discriminator 2
 829 0050 FF23     		movs	r3, #255
 830              	.L56:
 831              		.loc 1 1708 0 discriminator 4
 832 0052 07F52072 		add	r2, r7, #640
 833 0056 07F5AA70 		add	r0, r7, #340
 834 005a 4FF49671 		mov	r1, #300
 835 005e FFF7FEFF 		bl	UART_CyBtldrCommRead
 836 0062 C7F89002 		str	r0, [r7, #656]
1709:Generated_Source\PSoC5/Bootloader.c ****                                         Bootloader_SIZEOF_COMMAND_BUFFER,
1710:Generated_Source\PSoC5/Bootloader.c ****                                         &numberRead,
1711:Generated_Source\PSoC5/Bootloader.c ****                                         (0u == timeOut) ? 0xFFu : timeOut);
1712:Generated_Source\PSoC5/Bootloader.c ****             if (0u != timeOut)
 837              		.loc 1 1712 0 is_stmt 1 discriminator 4
 838 0066 FB1D     		adds	r3, r7, #7
 839 0068 1B78     		ldrb	r3, [r3]	@ zero_extendqisi2
 840 006a 002B     		cmp	r3, #0
 841 006c 04D0     		beq	.L57
1713:Generated_Source\PSoC5/Bootloader.c ****             {
ARM GAS  C:\Users\jobaek\AppData\Local\Temp\ccG7Gfbb.s 			page 46


1714:Generated_Source\PSoC5/Bootloader.c ****                 timeOutCnt--;
 842              		.loc 1 1714 0
 843 006e 97F8A132 		ldrb	r3, [r7, #673]	@ zero_extendqisi2
 844 0072 013B     		subs	r3, r3, #1
 845 0074 87F8A132 		strb	r3, [r7, #673]
 846              	.L57:
1715:Generated_Source\PSoC5/Bootloader.c ****             }
1716:Generated_Source\PSoC5/Bootloader.c **** 
1717:Generated_Source\PSoC5/Bootloader.c ****         } while ( (0u != timeOutCnt) && (readStat != CYRET_SUCCESS) );
 847              		.loc 1 1717 0
 848 0078 97F8A132 		ldrb	r3, [r7, #673]	@ zero_extendqisi2
 849 007c 002B     		cmp	r3, #0
 850 007e 03D0     		beq	.L58
 851              		.loc 1 1717 0 is_stmt 0 discriminator 1
 852 0080 D7F89032 		ldr	r3, [r7, #656]
 853 0084 002B     		cmp	r3, #0
 854 0086 DCD1     		bne	.L59
 855              	.L58:
1718:Generated_Source\PSoC5/Bootloader.c **** 
1719:Generated_Source\PSoC5/Bootloader.c **** 
1720:Generated_Source\PSoC5/Bootloader.c ****         if( readStat != CYRET_SUCCESS )
 856              		.loc 1 1720 0 is_stmt 1
 857 0088 D7F89032 		ldr	r3, [r7, #656]
 858 008c 002B     		cmp	r3, #0
 859 008e 40F05F83 		bne	.L125
1721:Generated_Source\PSoC5/Bootloader.c ****         {
1722:Generated_Source\PSoC5/Bootloader.c ****             continue;
1723:Generated_Source\PSoC5/Bootloader.c ****         }
1724:Generated_Source\PSoC5/Bootloader.c **** 
1725:Generated_Source\PSoC5/Bootloader.c ****         if((numberRead < Bootloader_MIN_PKT_SIZE) ||
 860              		.loc 1 1725 0
 861 0092 B7F88032 		ldrh	r3, [r7, #640]
 862 0096 062B     		cmp	r3, #6
 863 0098 04D9     		bls	.L62
1726:Generated_Source\PSoC5/Bootloader.c ****            (packetBuffer[Bootloader_SOP_ADDR] != Bootloader_SOP))
 864              		.loc 1 1726 0 discriminator 1
 865 009a 07F5AA73 		add	r3, r7, #340
 866 009e 1B78     		ldrb	r3, [r3]	@ zero_extendqisi2
1725:Generated_Source\PSoC5/Bootloader.c ****            (packetBuffer[Bootloader_SOP_ADDR] != Bootloader_SOP))
 867              		.loc 1 1725 0 discriminator 1
 868 00a0 012B     		cmp	r3, #1
 869 00a2 03D0     		beq	.L63
 870              	.L62:
1727:Generated_Source\PSoC5/Bootloader.c ****         {
1728:Generated_Source\PSoC5/Bootloader.c ****             ackCode = Bootloader_ERR_DATA;
 871              		.loc 1 1728 0
 872 00a4 0423     		movs	r3, #4
 873 00a6 87F8A532 		strb	r3, [r7, #677]
 874 00aa 4FE0     		b	.L64
 875              	.L63:
1729:Generated_Source\PSoC5/Bootloader.c ****         }
1730:Generated_Source\PSoC5/Bootloader.c ****         else
1731:Generated_Source\PSoC5/Bootloader.c ****         {
1732:Generated_Source\PSoC5/Bootloader.c ****             pktSize = ((uint16)((uint16)packetBuffer[Bootloader_SIZE_ADDR + 1u] << 8u)) |
 876              		.loc 1 1732 0
 877 00ac 07F5AA73 		add	r3, r7, #340
 878 00b0 DB78     		ldrb	r3, [r3, #3]	@ zero_extendqisi2
ARM GAS  C:\Users\jobaek\AppData\Local\Temp\ccG7Gfbb.s 			page 47


 879 00b2 9BB2     		uxth	r3, r3
 880 00b4 1B02     		lsls	r3, r3, #8
 881 00b6 9AB2     		uxth	r2, r3
1733:Generated_Source\PSoC5/Bootloader.c ****                                packetBuffer[Bootloader_SIZE_ADDR];
 882              		.loc 1 1733 0
 883 00b8 07F5AA73 		add	r3, r7, #340
 884 00bc 9B78     		ldrb	r3, [r3, #2]	@ zero_extendqisi2
1732:Generated_Source\PSoC5/Bootloader.c ****                                packetBuffer[Bootloader_SIZE_ADDR];
 885              		.loc 1 1732 0
 886 00be 9BB2     		uxth	r3, r3
 887 00c0 1343     		orrs	r3, r3, r2
 888 00c2 A7F8A232 		strh	r3, [r7, #674]	@ movhi
1734:Generated_Source\PSoC5/Bootloader.c **** 
1735:Generated_Source\PSoC5/Bootloader.c **** 
1736:Generated_Source\PSoC5/Bootloader.c ****             /**************************************************************************************
1737:Generated_Source\PSoC5/Bootloader.c ****             * If the whole packet length exceeds the number of bytes that have been read by the com
1738:Generated_Source\PSoC5/Bootloader.c ****             * component or the size of the buffer that is reserved for the packet, then give an err
1739:Generated_Source\PSoC5/Bootloader.c ****             **************************************************************************************/
1740:Generated_Source\PSoC5/Bootloader.c ****             if (((pktSize + Bootloader_MIN_PKT_SIZE) > numberRead) || 
 889              		.loc 1 1740 0
 890 00c6 B7F8A232 		ldrh	r3, [r7, #674]
 891 00ca 0733     		adds	r3, r3, #7
 892 00cc B7F88022 		ldrh	r2, [r7, #640]
 893 00d0 9342     		cmp	r3, r2
 894 00d2 05D8     		bhi	.L65
1741:Generated_Source\PSoC5/Bootloader.c ****                 ((pktSize + Bootloader_MIN_PKT_SIZE) > Bootloader_SIZEOF_COMMAND_BUFFER)) 
 895              		.loc 1 1741 0 discriminator 1
 896 00d4 B7F8A232 		ldrh	r3, [r7, #674]
 897 00d8 0733     		adds	r3, r3, #7
1740:Generated_Source\PSoC5/Bootloader.c ****                 ((pktSize + Bootloader_MIN_PKT_SIZE) > Bootloader_SIZEOF_COMMAND_BUFFER)) 
 898              		.loc 1 1740 0 discriminator 1
 899 00da B3F5967F 		cmp	r3, #300
 900 00de 03D9     		bls	.L66
 901              	.L65:
1742:Generated_Source\PSoC5/Bootloader.c ****             {
1743:Generated_Source\PSoC5/Bootloader.c ****                 ackCode = Bootloader_ERR_LENGTH;
 902              		.loc 1 1743 0
 903 00e0 0323     		movs	r3, #3
 904 00e2 87F8A532 		strb	r3, [r7, #677]
 905 00e6 31E0     		b	.L64
 906              	.L66:
1744:Generated_Source\PSoC5/Bootloader.c ****             }
1745:Generated_Source\PSoC5/Bootloader.c ****             else /* Packet length is OK*/
1746:Generated_Source\PSoC5/Bootloader.c ****             {
1747:Generated_Source\PSoC5/Bootloader.c ****                 pktChecksum = ((uint16)((uint16)packetBuffer[Bootloader_CHK_ADDR(pktSize) + 1u] << 
 907              		.loc 1 1747 0
 908 00e8 B7F8A232 		ldrh	r3, [r7, #674]
 909 00ec 0533     		adds	r3, r3, #5
 910 00ee 07F5AA72 		add	r2, r7, #340
 911 00f2 D35C     		ldrb	r3, [r2, r3]	@ zero_extendqisi2
 912 00f4 9BB2     		uxth	r3, r3
 913 00f6 1B02     		lsls	r3, r3, #8
 914 00f8 9AB2     		uxth	r2, r3
1748:Generated_Source\PSoC5/Bootloader.c ****                                    packetBuffer[Bootloader_CHK_ADDR(pktSize)];
 915              		.loc 1 1748 0
 916 00fa B7F8A232 		ldrh	r3, [r7, #674]
 917 00fe 0433     		adds	r3, r3, #4
ARM GAS  C:\Users\jobaek\AppData\Local\Temp\ccG7Gfbb.s 			page 48


 918 0100 07F5AA71 		add	r1, r7, #340
 919 0104 CB5C     		ldrb	r3, [r1, r3]	@ zero_extendqisi2
1747:Generated_Source\PSoC5/Bootloader.c ****                                    packetBuffer[Bootloader_CHK_ADDR(pktSize)];
 920              		.loc 1 1747 0
 921 0106 9BB2     		uxth	r3, r3
 922 0108 1343     		orrs	r3, r3, r2
 923 010a A7F88E32 		strh	r3, [r7, #654]	@ movhi
1749:Generated_Source\PSoC5/Bootloader.c ****    
1750:Generated_Source\PSoC5/Bootloader.c ****                 if (packetBuffer[Bootloader_EOP_ADDR(pktSize)] != Bootloader_EOP)
 924              		.loc 1 1750 0
 925 010e B7F8A232 		ldrh	r3, [r7, #674]
 926 0112 0633     		adds	r3, r3, #6
 927 0114 07F5AA72 		add	r2, r7, #340
 928 0118 D35C     		ldrb	r3, [r2, r3]	@ zero_extendqisi2
 929 011a 172B     		cmp	r3, #23
 930 011c 03D0     		beq	.L67
1751:Generated_Source\PSoC5/Bootloader.c ****                 {
1752:Generated_Source\PSoC5/Bootloader.c ****                     ackCode = Bootloader_ERR_DATA;
 931              		.loc 1 1752 0
 932 011e 0423     		movs	r3, #4
 933 0120 87F8A532 		strb	r3, [r7, #677]
 934 0124 12E0     		b	.L64
 935              	.L67:
1753:Generated_Source\PSoC5/Bootloader.c ****                 }
1754:Generated_Source\PSoC5/Bootloader.c ****                 else if(pktChecksum != Bootloader_CalcPacketChecksum(packetBuffer,
 936              		.loc 1 1754 0
 937 0126 B7F8A232 		ldrh	r3, [r7, #674]	@ movhi
 938 012a 0433     		adds	r3, r3, #4
 939 012c 9AB2     		uxth	r2, r3
 940 012e 07F5AA73 		add	r3, r7, #340
 941 0132 1146     		mov	r1, r2
 942 0134 1846     		mov	r0, r3
 943 0136 FFF7FEFF 		bl	Bootloader_CalcPacketChecksum
 944 013a 0346     		mov	r3, r0
 945 013c 1A46     		mov	r2, r3
 946 013e B7F88E32 		ldrh	r3, [r7, #654]
 947 0142 9342     		cmp	r3, r2
 948 0144 02D0     		beq	.L64
1755:Generated_Source\PSoC5/Bootloader.c ****                                                                         pktSize + Bootloader_DATA_A
1756:Generated_Source\PSoC5/Bootloader.c ****                 {
1757:Generated_Source\PSoC5/Bootloader.c ****                     ackCode = Bootloader_ERR_CHECKSUM;
 949              		.loc 1 1757 0
 950 0146 0823     		movs	r3, #8
 951 0148 87F8A532 		strb	r3, [r7, #677]
 952              	.L64:
1758:Generated_Source\PSoC5/Bootloader.c ****                 }
1759:Generated_Source\PSoC5/Bootloader.c ****                 else
1760:Generated_Source\PSoC5/Bootloader.c ****                 {
1761:Generated_Source\PSoC5/Bootloader.c ****                     /* Empty section */
1762:Generated_Source\PSoC5/Bootloader.c ****                 }
1763:Generated_Source\PSoC5/Bootloader.c ****             }    
1764:Generated_Source\PSoC5/Bootloader.c ****         }
1765:Generated_Source\PSoC5/Bootloader.c **** 
1766:Generated_Source\PSoC5/Bootloader.c ****         rspSize = Bootloader_RSP_SIZE_0;
 953              		.loc 1 1766 0
 954 014c 0023     		movs	r3, #0
 955 014e A7F8A632 		strh	r3, [r7, #678]	@ movhi
ARM GAS  C:\Users\jobaek\AppData\Local\Temp\ccG7Gfbb.s 			page 49


1767:Generated_Source\PSoC5/Bootloader.c ****         if(ackCode == CYRET_SUCCESS)
 956              		.loc 1 1767 0
 957 0152 97F8A532 		ldrb	r3, [r7, #677]	@ zero_extendqisi2
 958 0156 002B     		cmp	r3, #0
 959 0158 40F0F082 		bne	.L68
 960              	.LBB5:
1768:Generated_Source\PSoC5/Bootloader.c ****         {
1769:Generated_Source\PSoC5/Bootloader.c ****             uint8 CYDATA btldrData = packetBuffer[Bootloader_DATA_ADDR];
 961              		.loc 1 1769 0
 962 015c 07F5AA73 		add	r3, r7, #340
 963 0160 1B79     		ldrb	r3, [r3, #4]
 964 0162 87F88D32 		strb	r3, [r7, #653]
1770:Generated_Source\PSoC5/Bootloader.c **** 
1771:Generated_Source\PSoC5/Bootloader.c ****             ackCode = Bootloader_ERR_DATA;
 965              		.loc 1 1771 0
 966 0166 0423     		movs	r3, #4
 967 0168 87F8A532 		strb	r3, [r7, #677]
1772:Generated_Source\PSoC5/Bootloader.c ****             switch(packetBuffer[Bootloader_CMD_ADDR])
 968              		.loc 1 1772 0
 969 016c 07F5AA73 		add	r3, r7, #340
 970 0170 5B78     		ldrb	r3, [r3, #1]	@ zero_extendqisi2
 971 0172 313B     		subs	r3, r3, #49
 972 0174 0A2B     		cmp	r3, #10
 973 0176 00F27582 		bhi	.L69
 974 017a 01A2     		adr	r2, .L71
 975 017c 52F823F0 		ldr	pc, [r2, r3, lsl #2]
 976              		.p2align 2
 977              	.L71:
 978 0180 AD010000 		.word	.L70+1
 979 0184 E9010000 		.word	.L72+1
 980 0188 65060000 		.word	.L69+1
 981 018c 87020000 		.word	.L73+1
 982 0190 1F040000 		.word	.L74+1
 983 0194 65060000 		.word	.L69+1
 984 0198 31040000 		.word	.L75+1
 985 019c 83040000 		.word	.L76+1
 986 01a0 87020000 		.word	.L73+1
 987 01a4 CF040000 		.word	.L77+1
 988 01a8 49060000 		.word	.L78+1
 989              		.p2align 1
 990              	.L70:
1773:Generated_Source\PSoC5/Bootloader.c ****             {
1774:Generated_Source\PSoC5/Bootloader.c **** 
1775:Generated_Source\PSoC5/Bootloader.c **** 
1776:Generated_Source\PSoC5/Bootloader.c ****             /***************************************************************************
1777:Generated_Source\PSoC5/Bootloader.c ****             *   Get metadata (0x3C)
1778:Generated_Source\PSoC5/Bootloader.c ****             ***************************************************************************/
1779:Generated_Source\PSoC5/Bootloader.c ****             #if(0u != Bootloader_CMD_GET_METADATA)
1780:Generated_Source\PSoC5/Bootloader.c **** 
1781:Generated_Source\PSoC5/Bootloader.c ****                 case Bootloader_COMMAND_GET_METADATA:
1782:Generated_Source\PSoC5/Bootloader.c **** 
1783:Generated_Source\PSoC5/Bootloader.c ****                     if((Bootloader_COMMUNICATION_STATE_ACTIVE == communicationState) && (pktSize ==
1784:Generated_Source\PSoC5/Bootloader.c ****                     {
1785:Generated_Source\PSoC5/Bootloader.c ****                         if (btldrData >= Bootloader_MAX_NUM_OF_BTLDB)
1786:Generated_Source\PSoC5/Bootloader.c ****                         {
1787:Generated_Source\PSoC5/Bootloader.c ****                             ackCode = Bootloader_ERR_APP;
1788:Generated_Source\PSoC5/Bootloader.c ****                         }
ARM GAS  C:\Users\jobaek\AppData\Local\Temp\ccG7Gfbb.s 			page 50


1789:Generated_Source\PSoC5/Bootloader.c ****                         else if(CYRET_SUCCESS == Bootloader_ValidateBootloadable(btldrData))
1790:Generated_Source\PSoC5/Bootloader.c ****                         {
1791:Generated_Source\PSoC5/Bootloader.c ****                             #if(CY_PSOC3)
1792:Generated_Source\PSoC5/Bootloader.c ****                                 (void) memcpy(&packetBuffer[Bootloader_DATA_ADDR],
1793:Generated_Source\PSoC5/Bootloader.c ****                                             ((uint8  CYCODE *) (Bootloader_MD_BASE_ADDR(btldrData))
1794:Generated_Source\PSoC5/Bootloader.c ****                                             (int8)Bootloader_GET_METADATA_RESPONSE_SIZE);
1795:Generated_Source\PSoC5/Bootloader.c ****                             #else
1796:Generated_Source\PSoC5/Bootloader.c ****                                 (void) memcpy(&packetBuffer[Bootloader_DATA_ADDR],
1797:Generated_Source\PSoC5/Bootloader.c ****                                             (uint8 *) Bootloader_MD_BASE_ADDR(btldrData),
1798:Generated_Source\PSoC5/Bootloader.c ****                                             Bootloader_GET_METADATA_RESPONSE_SIZE);
1799:Generated_Source\PSoC5/Bootloader.c ****                             #endif  /* (CY_PSOC3) */
1800:Generated_Source\PSoC5/Bootloader.c **** 
1801:Generated_Source\PSoC5/Bootloader.c ****                             rspSize = Bootloader_RSP_SIZE_GET_METADATA;
1802:Generated_Source\PSoC5/Bootloader.c ****                             ackCode = CYRET_SUCCESS;
1803:Generated_Source\PSoC5/Bootloader.c ****                         }
1804:Generated_Source\PSoC5/Bootloader.c ****                         else
1805:Generated_Source\PSoC5/Bootloader.c ****                         {
1806:Generated_Source\PSoC5/Bootloader.c ****                             ackCode = Bootloader_ERR_APP;
1807:Generated_Source\PSoC5/Bootloader.c ****                         }
1808:Generated_Source\PSoC5/Bootloader.c ****                     }
1809:Generated_Source\PSoC5/Bootloader.c ****                     break;
1810:Generated_Source\PSoC5/Bootloader.c **** 
1811:Generated_Source\PSoC5/Bootloader.c ****             #endif  /* (0u != Bootloader_CMD_GET_METADATA) */
1812:Generated_Source\PSoC5/Bootloader.c **** 
1813:Generated_Source\PSoC5/Bootloader.c **** 
1814:Generated_Source\PSoC5/Bootloader.c ****             /***************************************************************************
1815:Generated_Source\PSoC5/Bootloader.c ****             *   Verify application checksum (0x31)
1816:Generated_Source\PSoC5/Bootloader.c ****             ***************************************************************************/
1817:Generated_Source\PSoC5/Bootloader.c ****         #if (0u != Bootloader_CMD_VERIFY_APP_CHKSUM_AVAIL)     
1818:Generated_Source\PSoC5/Bootloader.c ****             case Bootloader_COMMAND_CHECKSUM:
1819:Generated_Source\PSoC5/Bootloader.c **** 
1820:Generated_Source\PSoC5/Bootloader.c ****                 if((Bootloader_COMMUNICATION_STATE_ACTIVE == communicationState) && (pktSize == 0u)
 991              		.loc 1 1820 0
 992 01ac 97F8A032 		ldrb	r3, [r7, #672]	@ zero_extendqisi2
 993 01b0 012B     		cmp	r3, #1
 994 01b2 40F0B282 		bne	.L126
 995              		.loc 1 1820 0 is_stmt 0 discriminator 1
 996 01b6 B7F8A232 		ldrh	r3, [r7, #674]
 997 01ba 002B     		cmp	r3, #0
 998 01bc 40F0AD82 		bne	.L126
1821:Generated_Source\PSoC5/Bootloader.c ****                 {
1822:Generated_Source\PSoC5/Bootloader.c ****                     packetBuffer[Bootloader_DATA_ADDR] =
1823:Generated_Source\PSoC5/Bootloader.c ****                             (uint8)(Bootloader_ValidateBootloadable(Bootloader_activeApp) == CYRET_
 999              		.loc 1 1823 0 is_stmt 1
 1000 01c0 0020     		movs	r0, #0
 1001 01c2 FFF7FEFF 		bl	Bootloader_ValidateBootloadable
 1002 01c6 0346     		mov	r3, r0
 1003 01c8 002B     		cmp	r3, #0
 1004 01ca 0CBF     		ite	eq
 1005 01cc 0123     		moveq	r3, #1
 1006 01ce 0023     		movne	r3, #0
 1007 01d0 DBB2     		uxtb	r3, r3
 1008 01d2 1A46     		mov	r2, r3
1822:Generated_Source\PSoC5/Bootloader.c ****                             (uint8)(Bootloader_ValidateBootloadable(Bootloader_activeApp) == CYRET_
 1009              		.loc 1 1822 0
 1010 01d4 07F5AA73 		add	r3, r7, #340
 1011 01d8 1A71     		strb	r2, [r3, #4]
ARM GAS  C:\Users\jobaek\AppData\Local\Temp\ccG7Gfbb.s 			page 51


1824:Generated_Source\PSoC5/Bootloader.c **** 
1825:Generated_Source\PSoC5/Bootloader.c ****                     rspSize = Bootloader_RSP_SIZE_VERIFY_CHKSM;
 1012              		.loc 1 1825 0
 1013 01da 0123     		movs	r3, #1
 1014 01dc A7F8A632 		strh	r3, [r7, #678]	@ movhi
1826:Generated_Source\PSoC5/Bootloader.c ****                     ackCode = CYRET_SUCCESS;
 1015              		.loc 1 1826 0
 1016 01e0 0023     		movs	r3, #0
 1017 01e2 87F8A532 		strb	r3, [r7, #677]
1827:Generated_Source\PSoC5/Bootloader.c ****                 }
1828:Generated_Source\PSoC5/Bootloader.c ****                 break;
 1018              		.loc 1 1828 0
 1019 01e6 98E2     		b	.L126
 1020              	.L72:
1829:Generated_Source\PSoC5/Bootloader.c ****         #endif /* (0u != Bootloader_CMD_VERIFY_APP_CHKSUM_AVAIL) */
1830:Generated_Source\PSoC5/Bootloader.c **** 
1831:Generated_Source\PSoC5/Bootloader.c ****             /*****************************************************************************
1832:Generated_Source\PSoC5/Bootloader.c ****             *   Verify row (0x45u)
1833:Generated_Source\PSoC5/Bootloader.c ****             ***************************************************************************/
1834:Generated_Source\PSoC5/Bootloader.c ****         #if(0u != Bootloader_CMD_VERIFY_FLS_ROW_AVAIL)
1835:Generated_Source\PSoC5/Bootloader.c ****             case Bootloader_COMMAND_VERIFY_FLS_ROW:
1836:Generated_Source\PSoC5/Bootloader.c **** 
1837:Generated_Source\PSoC5/Bootloader.c ****                 /* Packet size is either 3 (data is already in buffer) or (3u + Bootloader_FROW_SIZ
1838:Generated_Source\PSoC5/Bootloader.c ****                  * then data is in packetBuffer[]*/
1839:Generated_Source\PSoC5/Bootloader.c ****                 if ((Bootloader_COMMUNICATION_STATE_ACTIVE == communicationState) && ((3u == pktSiz
1840:Generated_Source\PSoC5/Bootloader.c ****                    ((3u + Bootloader_FROW_SIZE) == pktSize)))
1841:Generated_Source\PSoC5/Bootloader.c ****                 {
1842:Generated_Source\PSoC5/Bootloader.c ****                     uint16 CYDATA rowNum = ((uint16)((uint16)packetBuffer[Bootloader_DATA_ADDR + 2u
1843:Generated_Source\PSoC5/Bootloader.c ****                                                              packetBuffer[Bootloader_DATA_ADDR + 1u
1844:Generated_Source\PSoC5/Bootloader.c ****                     
1845:Generated_Source\PSoC5/Bootloader.c ****                     uint32 CYDATA startAddr;
1846:Generated_Source\PSoC5/Bootloader.c ****                     uint16 upperRange = 0u;
1847:Generated_Source\PSoC5/Bootloader.c ****                 #if (!CY_PSOC4)
1848:Generated_Source\PSoC5/Bootloader.c ****                     uint16 CYDATA rowSize; 
1849:Generated_Source\PSoC5/Bootloader.c ****                 #endif /*(!CY_PSOC4)*/    
1850:Generated_Source\PSoC5/Bootloader.c ****                     
1851:Generated_Source\PSoC5/Bootloader.c ****                     ackCode = CYRET_SUCCESS;
1852:Generated_Source\PSoC5/Bootloader.c ****                     rspSize = Bootloader_RSP_SIZE_0;
1853:Generated_Source\PSoC5/Bootloader.c ****                         
1854:Generated_Source\PSoC5/Bootloader.c ****                     if (3u == pktSize)
1855:Generated_Source\PSoC5/Bootloader.c ****                     {
1856:Generated_Source\PSoC5/Bootloader.c ****                         /* Do nothing, data is already in dataBuffer[] */
1857:Generated_Source\PSoC5/Bootloader.c ****                     }
1858:Generated_Source\PSoC5/Bootloader.c ****                     else 
1859:Generated_Source\PSoC5/Bootloader.c ****                     {
1860:Generated_Source\PSoC5/Bootloader.c ****                     #if (CY_PSOC3)
1861:Generated_Source\PSoC5/Bootloader.c ****                         /*Data is in packetBuffer[], needs to be copied to dataBuffer[]*/
1862:Generated_Source\PSoC5/Bootloader.c ****                         (void) memcpy(dataBuffer, &packetBuffer[Bootloader_DATA_ADDR + 3u],
1863:Generated_Source\PSoC5/Bootloader.c ****                                       (int16)pktSize - 3);
1864:Generated_Source\PSoC5/Bootloader.c ****                     #else              
1865:Generated_Source\PSoC5/Bootloader.c ****                         /*Data is in packetBuffer[], needs to be copied to dataBuffer[]*/
1866:Generated_Source\PSoC5/Bootloader.c ****                         (void) memcpy(dataBuffer, &packetBuffer[Bootloader_DATA_ADDR + 3u],
1867:Generated_Source\PSoC5/Bootloader.c ****                                       (uint32)pktSize - 3u);
1868:Generated_Source\PSoC5/Bootloader.c ****                     #endif /*CY_PSOC3)*/              
1869:Generated_Source\PSoC5/Bootloader.c ****                     }
1870:Generated_Source\PSoC5/Bootloader.c ****                         
1871:Generated_Source\PSoC5/Bootloader.c ****                 #if (!CY_PSOC4) 
ARM GAS  C:\Users\jobaek\AppData\Local\Temp\ccG7Gfbb.s 			page 52


1872:Generated_Source\PSoC5/Bootloader.c ****                     if((btldrData >= Bootloader_FIRST_EE_ARRAYID) &&
1873:Generated_Source\PSoC5/Bootloader.c ****                        (btldrData <= Bootloader_LAST_EE_ARRAYID))
1874:Generated_Source\PSoC5/Bootloader.c ****                     {
1875:Generated_Source\PSoC5/Bootloader.c ****                         /* EEPROM */
1876:Generated_Source\PSoC5/Bootloader.c ****                         /* Both PSoC 3 and PSoC 5LP architecture have one EEPROM array. */
1877:Generated_Source\PSoC5/Bootloader.c ****                         startAddr = CY_EEPROM_BASE + ((uint32)rowNum * CYDEV_EEPROM_ROW_SIZE);
1878:Generated_Source\PSoC5/Bootloader.c ****                         rowSize = CYDEV_EEPROM_ROW_SIZE;
1879:Generated_Source\PSoC5/Bootloader.c ****                         upperRange = Bootloader_NUMBER_OF_EEPROM_SECTORS * Bootloader_NUMBER_OF_ROW
1880:Generated_Source\PSoC5/Bootloader.c ****                     }
1881:Generated_Source\PSoC5/Bootloader.c ****                     else if (btldrData < CY_FLASH_NUMBER_ARRAYS)    
1882:Generated_Source\PSoC5/Bootloader.c ****                     {
1883:Generated_Source\PSoC5/Bootloader.c ****                         startAddr = CY_FLASH_BASE + ((uint32)btldrData * CYDEV_FLS_SECTOR_SIZE) +
1884:Generated_Source\PSoC5/Bootloader.c ****                                                      ((uint32)rowNum * CYDEV_FLS_ROW_SIZE);
1885:Generated_Source\PSoC5/Bootloader.c ****                         rowSize = CYDEV_FLS_ROW_SIZE;        
1886:Generated_Source\PSoC5/Bootloader.c ****                         upperRange = Bootloader_NUMBER_OF_ROWS_IN_ARRAY;                        
1887:Generated_Source\PSoC5/Bootloader.c ****                     }
1888:Generated_Source\PSoC5/Bootloader.c ****                     else
1889:Generated_Source\PSoC5/Bootloader.c ****                     {
1890:Generated_Source\PSoC5/Bootloader.c ****                         ackCode = Bootloader_ERR_ARRAY;
1891:Generated_Source\PSoC5/Bootloader.c ****                         break;                              
1892:Generated_Source\PSoC5/Bootloader.c ****                     }
1893:Generated_Source\PSoC5/Bootloader.c **** 
1894:Generated_Source\PSoC5/Bootloader.c ****                     /*Checking if row number is within array address range*/
1895:Generated_Source\PSoC5/Bootloader.c ****                     ackCode = Bootloader_CHECK_ROW_NUMBER(rowNum, upperRange);
1896:Generated_Source\PSoC5/Bootloader.c ****                     
1897:Generated_Source\PSoC5/Bootloader.c ****                     if (CYRET_SUCCESS != ackCode)
1898:Generated_Source\PSoC5/Bootloader.c ****                     {
1899:Generated_Source\PSoC5/Bootloader.c ****                         break;
1900:Generated_Source\PSoC5/Bootloader.c ****                     }
1901:Generated_Source\PSoC5/Bootloader.c ****                     
1902:Generated_Source\PSoC5/Bootloader.c ****                     ackCode = Bootloader_VerifyRow(startAddr, dataBuffer, rowSize);
1903:Generated_Source\PSoC5/Bootloader.c ****                     
1904:Generated_Source\PSoC5/Bootloader.c ****                     /******************************************************************************
1905:Generated_Source\PSoC5/Bootloader.c ****                     * If flash row check has completed successfully and ECC is disabled and there i
1906:Generated_Source\PSoC5/Bootloader.c ****                     * data in the buffer for ECC row.
1907:Generated_Source\PSoC5/Bootloader.c ****                     *******************************************************************************
1908:Generated_Source\PSoC5/Bootloader.c ****                     #if (CYDEV_ECC_ENABLE == 0u)
1909:Generated_Source\PSoC5/Bootloader.c ****                         if ((CYRET_SUCCESS == ackCode) && (btldrData < CY_FLASH_NUMBER_ARRAYS) && (
1910:Generated_Source\PSoC5/Bootloader.c ****                         {
1911:Generated_Source\PSoC5/Bootloader.c ****                             startAddr = CYDEV_ECC_BASE + ((uint32)btldrData * (CYDEV_FLS_SECTOR_SIZ
1912:Generated_Source\PSoC5/Bootloader.c ****                                         ((uint32)rowNum * CYDEV_ECC_ROW_SIZE);
1913:Generated_Source\PSoC5/Bootloader.c ****                                                 
1914:Generated_Source\PSoC5/Bootloader.c ****                             ackCode = Bootloader_VerifyRow(startAddr, &dataBuffer[rowSize], (uint16
1915:Generated_Source\PSoC5/Bootloader.c ****                         }
1916:Generated_Source\PSoC5/Bootloader.c ****                     #endif /*(CYDEV_ECC_ENABLE == 0u)*/
1917:Generated_Source\PSoC5/Bootloader.c ****                     
1918:Generated_Source\PSoC5/Bootloader.c ****                 #else /*CY_PSOC4*/
1919:Generated_Source\PSoC5/Bootloader.c ****                     if (btldrData < CY_FLASH_NUMBER_ARRAYS)
1920:Generated_Source\PSoC5/Bootloader.c ****                     {
1921:Generated_Source\PSoC5/Bootloader.c ****                         startAddr = CY_FLASH_BASE + ((uint32)btldrData * CYDEV_FLS_SECTOR_SIZE)
1922:Generated_Source\PSoC5/Bootloader.c ****                                             + ((uint32)rowNum * CYDEV_FLS_ROW_SIZE);
1923:Generated_Source\PSoC5/Bootloader.c **** 
1924:Generated_Source\PSoC5/Bootloader.c ****                         upperRange = Bootloader_NUMBER_OF_ROWS_IN_ARRAY;         
1925:Generated_Source\PSoC5/Bootloader.c ****                         
1926:Generated_Source\PSoC5/Bootloader.c ****                         /*Checking if row number is within array address range*/
1927:Generated_Source\PSoC5/Bootloader.c ****                         ackCode = Bootloader_CHECK_ROW_NUMBER(rowNum, upperRange);
1928:Generated_Source\PSoC5/Bootloader.c ****                     
ARM GAS  C:\Users\jobaek\AppData\Local\Temp\ccG7Gfbb.s 			page 53


1929:Generated_Source\PSoC5/Bootloader.c ****                         if (CYRET_SUCCESS != ackCode)
1930:Generated_Source\PSoC5/Bootloader.c ****                         {
1931:Generated_Source\PSoC5/Bootloader.c ****                             break;
1932:Generated_Source\PSoC5/Bootloader.c ****                         }
1933:Generated_Source\PSoC5/Bootloader.c ****                         
1934:Generated_Source\PSoC5/Bootloader.c ****                         ackCode = Bootloader_VerifyRow(startAddr, dataBuffer, (uint16)CYDEV_FLS_ROW
1935:Generated_Source\PSoC5/Bootloader.c ****                     }
1936:Generated_Source\PSoC5/Bootloader.c ****                     else
1937:Generated_Source\PSoC5/Bootloader.c ****                     {
1938:Generated_Source\PSoC5/Bootloader.c ****                         ackCode = Bootloader_ERR_ARRAY;
1939:Generated_Source\PSoC5/Bootloader.c ****                         break;                     
1940:Generated_Source\PSoC5/Bootloader.c ****                     }
1941:Generated_Source\PSoC5/Bootloader.c ****                 #endif  /* (!CY_PSOC4) */
1942:Generated_Source\PSoC5/Bootloader.c ****                 
1943:Generated_Source\PSoC5/Bootloader.c ****                 } 
1944:Generated_Source\PSoC5/Bootloader.c ****                 break;
1945:Generated_Source\PSoC5/Bootloader.c ****         #endif /*(0u != Bootloader_CMD_VERIFY_ROW_FLS_AVAIL)*/
1946:Generated_Source\PSoC5/Bootloader.c **** 
1947:Generated_Source\PSoC5/Bootloader.c ****             /***************************************************************************
1948:Generated_Source\PSoC5/Bootloader.c ****             *   Get flash size (0x32)
1949:Generated_Source\PSoC5/Bootloader.c ****             ***************************************************************************/
1950:Generated_Source\PSoC5/Bootloader.c ****             #if(0u != Bootloader_CMD_GET_FLASH_SIZE_AVAIL)
1951:Generated_Source\PSoC5/Bootloader.c **** 
1952:Generated_Source\PSoC5/Bootloader.c ****                 case Bootloader_COMMAND_REPORT_SIZE:
1953:Generated_Source\PSoC5/Bootloader.c **** 
1954:Generated_Source\PSoC5/Bootloader.c ****                     /* btldrData - holds flash array ID sent by host */
1955:Generated_Source\PSoC5/Bootloader.c ****                     if((Bootloader_COMMUNICATION_STATE_ACTIVE == communicationState) && (pktSize ==
 1021              		.loc 1 1955 0
 1022 01e8 97F8A032 		ldrb	r3, [r7, #672]	@ zero_extendqisi2
 1023 01ec 012B     		cmp	r3, #1
 1024 01ee 40F09682 		bne	.L127
 1025              		.loc 1 1955 0 is_stmt 0 discriminator 1
 1026 01f2 B7F8A232 		ldrh	r3, [r7, #674]
 1027 01f6 012B     		cmp	r3, #1
 1028 01f8 40F09182 		bne	.L127
1956:Generated_Source\PSoC5/Bootloader.c ****                     {
1957:Generated_Source\PSoC5/Bootloader.c ****                         if(btldrData < CY_FLASH_NUMBER_ARRAYS)
 1029              		.loc 1 1957 0 is_stmt 1
 1030 01fc 97F88D32 		ldrb	r3, [r7, #653]	@ zero_extendqisi2
 1031 0200 032B     		cmp	r3, #3
 1032 0202 00F28C82 		bhi	.L127
 1033              	.LBB6:
1958:Generated_Source\PSoC5/Bootloader.c ****                         {
1959:Generated_Source\PSoC5/Bootloader.c ****                             uint16 CYDATA startRow;
1960:Generated_Source\PSoC5/Bootloader.c ****                             uint8  CYDATA arrayIdBtlderEnds;
1961:Generated_Source\PSoC5/Bootloader.c **** 
1962:Generated_Source\PSoC5/Bootloader.c ****                             /**********************************************************************
1963:Generated_Source\PSoC5/Bootloader.c ****                             * - For the flash array where the Bootloader application ends, returns 
1964:Generated_Source\PSoC5/Bootloader.c ****                             *   full row after the Bootloader application.
1965:Generated_Source\PSoC5/Bootloader.c ****                             *
1966:Generated_Source\PSoC5/Bootloader.c ****                             * - For a fully occupied flash array, the number of rows in the array i
1967:Generated_Source\PSoC5/Bootloader.c ****                             *   because there is no space for the Bootloadable application in this 
1968:Generated_Source\PSoC5/Bootloader.c ****                             *
1969:Generated_Source\PSoC5/Bootloader.c ****                             * - For the arrays next to the occupied array, zero is returned.
1970:Generated_Source\PSoC5/Bootloader.c ****                             *   The Bootloadable application can be written from those arrays begin
1971:Generated_Source\PSoC5/Bootloader.c ****                             *
1972:Generated_Source\PSoC5/Bootloader.c ****                             *   If this is a Bootloader that is located in an application (Combinat
ARM GAS  C:\Users\jobaek\AppData\Local\Temp\ccG7Gfbb.s 			page 54


1973:Generated_Source\PSoC5/Bootloader.c ****                             *   then we do not use the Bootloader_SizeBytes and Bootloader_SizeByte
1974:Generated_Source\PSoC5/Bootloader.c ****                             *   variables, instead we take the Launcher's last row from metadata.
1975:Generated_Source\PSoC5/Bootloader.c ****                             ***********************************************************************
1976:Generated_Source\PSoC5/Bootloader.c ****                         #if (CYDEV_PROJ_TYPE != CYDEV_PROJ_TYPE_LOADABLEANDBOOTLOADER) 
1977:Generated_Source\PSoC5/Bootloader.c ****                             arrayIdBtlderEnds = (uint8) (*Bootloader_SizeBytesAccess / CY_FLASH_SIZ
 1034              		.loc 1 1977 0
 1035 0206 D84B     		ldr	r3, .L135
 1036 0208 1B68     		ldr	r3, [r3]
 1037 020a 1B68     		ldr	r3, [r3]
 1038 020c 1B0C     		lsrs	r3, r3, #16
 1039 020e 87F88C32 		strb	r3, [r7, #652]
1978:Generated_Source\PSoC5/Bootloader.c **** 
1979:Generated_Source\PSoC5/Bootloader.c ****                             if (btldrData == arrayIdBtlderEnds)
 1040              		.loc 1 1979 0
 1041 0212 97F88D22 		ldrb	r2, [r7, #653]	@ zero_extendqisi2
 1042 0216 97F88C32 		ldrb	r3, [r7, #652]	@ zero_extendqisi2
 1043 021a 9A42     		cmp	r2, r3
 1044 021c 08D1     		bne	.L81
1980:Generated_Source\PSoC5/Bootloader.c ****                             {
1981:Generated_Source\PSoC5/Bootloader.c ****                                 startRow = (uint16) (*Bootloader_SizeBytesAccess / CY_FLASH_SIZEOF_
 1045              		.loc 1 1981 0
 1046 021e D24B     		ldr	r3, .L135
 1047 0220 1B68     		ldr	r3, [r3]
 1048 0222 1B68     		ldr	r3, [r3]
 1049 0224 1B0A     		lsrs	r3, r3, #8
 1050 0226 9BB2     		uxth	r3, r3
 1051 0228 DBB2     		uxtb	r3, r3
 1052 022a A7F89C32 		strh	r3, [r7, #668]	@ movhi
 1053 022e 0DE0     		b	.L82
 1054              	.L81:
1982:Generated_Source\PSoC5/Bootloader.c ****                                             Bootloader_NUMBER_OF_ROWS_IN_ARRAY;
1983:Generated_Source\PSoC5/Bootloader.c ****                             }
1984:Generated_Source\PSoC5/Bootloader.c ****                         #else /*Combination project type*/   
1985:Generated_Source\PSoC5/Bootloader.c ****                             btldrLastRow = (uint16)(Bootloader_GetMetadata(Bootloader_GET_BTLDR_LAS
1986:Generated_Source\PSoC5/Bootloader.c ****                                                                                 Bootloader_MD_BTLDB
1987:Generated_Source\PSoC5/Bootloader.c ****                             arrayIdBtlderEnds = (uint8) (((uint32)btldrLastRow * CY_FLASH_SIZEOF_RO
1988:Generated_Source\PSoC5/Bootloader.c ****                             if (btldrData == arrayIdBtlderEnds)
1989:Generated_Source\PSoC5/Bootloader.c ****                             {
1990:Generated_Source\PSoC5/Bootloader.c ****                                 startRow = (uint16)((btldrLastRow) % Bootloader_NUMBER_OF_ROWS_IN_A
1991:Generated_Source\PSoC5/Bootloader.c ****                             }
1992:Generated_Source\PSoC5/Bootloader.c ****                         #endif /*(CYDEV_PROJ_TYPE != CYDEV_PROJ_TYPE_LOADABLEANDBOOTLOADER)*/
1993:Generated_Source\PSoC5/Bootloader.c ****                         
1994:Generated_Source\PSoC5/Bootloader.c ****                             else if (btldrData > arrayIdBtlderEnds)
 1055              		.loc 1 1994 0
 1056 0230 97F88D22 		ldrb	r2, [r7, #653]	@ zero_extendqisi2
 1057 0234 97F88C32 		ldrb	r3, [r7, #652]	@ zero_extendqisi2
 1058 0238 9A42     		cmp	r2, r3
 1059 023a 03D9     		bls	.L83
1995:Generated_Source\PSoC5/Bootloader.c ****                             {
1996:Generated_Source\PSoC5/Bootloader.c ****                                 startRow = Bootloader_FIRST_ROW_IN_ARRAY;
 1060              		.loc 1 1996 0
 1061 023c 0023     		movs	r3, #0
 1062 023e A7F89C32 		strh	r3, [r7, #668]	@ movhi
 1063 0242 03E0     		b	.L82
 1064              	.L83:
1997:Generated_Source\PSoC5/Bootloader.c ****                             }
1998:Generated_Source\PSoC5/Bootloader.c ****                             else /* (btldrData < ArrayIdBtlderEnds) */
ARM GAS  C:\Users\jobaek\AppData\Local\Temp\ccG7Gfbb.s 			page 55


1999:Generated_Source\PSoC5/Bootloader.c ****                             {
2000:Generated_Source\PSoC5/Bootloader.c ****                                 startRow = Bootloader_NUMBER_OF_ROWS_IN_ARRAY;
 1065              		.loc 1 2000 0
 1066 0244 4FF48073 		mov	r3, #256
 1067 0248 A7F89C32 		strh	r3, [r7, #668]	@ movhi
 1068              	.L82:
2001:Generated_Source\PSoC5/Bootloader.c ****                             }
2002:Generated_Source\PSoC5/Bootloader.c **** 
2003:Generated_Source\PSoC5/Bootloader.c ****                             packetBuffer[Bootloader_DATA_ADDR]      = LO8(startRow);
 1069              		.loc 1 2003 0
 1070 024c B7F89C32 		ldrh	r3, [r7, #668]	@ movhi
 1071 0250 DAB2     		uxtb	r2, r3
 1072 0252 07F5AA73 		add	r3, r7, #340
 1073 0256 1A71     		strb	r2, [r3, #4]
2004:Generated_Source\PSoC5/Bootloader.c ****                             packetBuffer[Bootloader_DATA_ADDR + 1u] = HI8(startRow);
 1074              		.loc 1 2004 0
 1075 0258 B7F89C32 		ldrh	r3, [r7, #668]
 1076 025c 1B0A     		lsrs	r3, r3, #8
 1077 025e 9BB2     		uxth	r3, r3
 1078 0260 DAB2     		uxtb	r2, r3
 1079 0262 07F5AA73 		add	r3, r7, #340
 1080 0266 5A71     		strb	r2, [r3, #5]
2005:Generated_Source\PSoC5/Bootloader.c **** 
2006:Generated_Source\PSoC5/Bootloader.c ****                             packetBuffer[Bootloader_DATA_ADDR + 2u] =
 1081              		.loc 1 2006 0
 1082 0268 07F5AA73 		add	r3, r7, #340
 1083 026c FF22     		movs	r2, #255
 1084 026e 9A71     		strb	r2, [r3, #6]
2007:Generated_Source\PSoC5/Bootloader.c ****                                         LO8(Bootloader_NUMBER_OF_ROWS_IN_ARRAY - 1u);
2008:Generated_Source\PSoC5/Bootloader.c **** 
2009:Generated_Source\PSoC5/Bootloader.c ****                             packetBuffer[Bootloader_DATA_ADDR + 3u] =
 1085              		.loc 1 2009 0
 1086 0270 07F5AA73 		add	r3, r7, #340
 1087 0274 0022     		movs	r2, #0
 1088 0276 DA71     		strb	r2, [r3, #7]
2010:Generated_Source\PSoC5/Bootloader.c ****                                         HI8(Bootloader_NUMBER_OF_ROWS_IN_ARRAY - 1u);
2011:Generated_Source\PSoC5/Bootloader.c **** 
2012:Generated_Source\PSoC5/Bootloader.c ****                             rspSize = Bootloader_RSP_SIZE_GET_FLASH_SIZE;
 1089              		.loc 1 2012 0
 1090 0278 0423     		movs	r3, #4
 1091 027a A7F8A632 		strh	r3, [r7, #678]	@ movhi
2013:Generated_Source\PSoC5/Bootloader.c ****                             ackCode = CYRET_SUCCESS;
 1092              		.loc 1 2013 0
 1093 027e 0023     		movs	r3, #0
 1094 0280 87F8A532 		strb	r3, [r7, #677]
 1095              	.LBE6:
2014:Generated_Source\PSoC5/Bootloader.c ****                         }
2015:Generated_Source\PSoC5/Bootloader.c **** 
2016:Generated_Source\PSoC5/Bootloader.c ****                     }
2017:Generated_Source\PSoC5/Bootloader.c ****                     break;
 1096              		.loc 1 2017 0
 1097 0284 4BE2     		b	.L127
 1098              	.L73:
2018:Generated_Source\PSoC5/Bootloader.c **** 
2019:Generated_Source\PSoC5/Bootloader.c ****             #endif  /* (0u != Bootloader_CMD_GET_FLASH_SIZE_AVAIL) */
2020:Generated_Source\PSoC5/Bootloader.c **** 
2021:Generated_Source\PSoC5/Bootloader.c **** 
ARM GAS  C:\Users\jobaek\AppData\Local\Temp\ccG7Gfbb.s 			page 56


2022:Generated_Source\PSoC5/Bootloader.c ****             /***************************************************************************
2023:Generated_Source\PSoC5/Bootloader.c ****             *   Get application status (0x33)
2024:Generated_Source\PSoC5/Bootloader.c ****             ***************************************************************************/
2025:Generated_Source\PSoC5/Bootloader.c ****             #if ((0u != Bootloader_DUAL_APP_BOOTLOADER) || (CYDEV_PROJ_TYPE == CYDEV_PROJ_TYPE_LOAD
2026:Generated_Source\PSoC5/Bootloader.c **** 
2027:Generated_Source\PSoC5/Bootloader.c ****                 #if(0u != Bootloader_CMD_GET_APP_STATUS_AVAIL)
2028:Generated_Source\PSoC5/Bootloader.c **** 
2029:Generated_Source\PSoC5/Bootloader.c ****                     case Bootloader_COMMAND_APP_STATUS:
2030:Generated_Source\PSoC5/Bootloader.c **** 
2031:Generated_Source\PSoC5/Bootloader.c ****                         if((Bootloader_COMMUNICATION_STATE_ACTIVE == communicationState) && (1u == 
2032:Generated_Source\PSoC5/Bootloader.c ****                         {
2033:Generated_Source\PSoC5/Bootloader.c **** 
2034:Generated_Source\PSoC5/Bootloader.c ****                             packetBuffer[Bootloader_DATA_ADDR] =
2035:Generated_Source\PSoC5/Bootloader.c ****                                 (uint8)Bootloader_ValidateBootloadable(btldrData);
2036:Generated_Source\PSoC5/Bootloader.c **** 
2037:Generated_Source\PSoC5/Bootloader.c ****                             packetBuffer[Bootloader_DATA_ADDR + 1u] =
2038:Generated_Source\PSoC5/Bootloader.c ****                                 (uint8) Bootloader_GetMetadata(Bootloader_GET_BTLDB_ACTIVE, btldrDa
2039:Generated_Source\PSoC5/Bootloader.c **** 
2040:Generated_Source\PSoC5/Bootloader.c ****                             rspSize = Bootloader_RSP_SIZE_GET_APP_STATUS;
2041:Generated_Source\PSoC5/Bootloader.c ****                             ackCode = CYRET_SUCCESS;
2042:Generated_Source\PSoC5/Bootloader.c ****                         }
2043:Generated_Source\PSoC5/Bootloader.c ****                         break;
2044:Generated_Source\PSoC5/Bootloader.c **** 
2045:Generated_Source\PSoC5/Bootloader.c ****                 #endif  /* (0u != Bootloader_CMD_GET_APP_STATUS_AVAIL) */
2046:Generated_Source\PSoC5/Bootloader.c **** 
2047:Generated_Source\PSoC5/Bootloader.c ****             #endif  /* (0u != Bootloader_DUAL_APP_BOOTLOADER || (CYDEV_PROJ_TYPE == CYDEV_PROJ_TYPE
2048:Generated_Source\PSoC5/Bootloader.c **** 
2049:Generated_Source\PSoC5/Bootloader.c ****             /***************************************************************************
2050:Generated_Source\PSoC5/Bootloader.c ****             *   Program / Erase row (0x39 / 0x34)
2051:Generated_Source\PSoC5/Bootloader.c ****             ***************************************************************************/
2052:Generated_Source\PSoC5/Bootloader.c ****             case Bootloader_COMMAND_PROGRAM:
2053:Generated_Source\PSoC5/Bootloader.c **** 
2054:Generated_Source\PSoC5/Bootloader.c ****             /* btldrData variable holds Flash Array ID */
2055:Generated_Source\PSoC5/Bootloader.c **** 
2056:Generated_Source\PSoC5/Bootloader.c ****         #if (0u != Bootloader_CMD_ERASE_ROW_AVAIL)
2057:Generated_Source\PSoC5/Bootloader.c **** 
2058:Generated_Source\PSoC5/Bootloader.c ****             case Bootloader_COMMAND_ERASE:
2059:Generated_Source\PSoC5/Bootloader.c ****                 if (Bootloader_COMMAND_ERASE == packetBuffer[Bootloader_CMD_ADDR])
 1099              		.loc 1 2059 0
 1100 0286 07F5AA73 		add	r3, r7, #340
 1101 028a 5B78     		ldrb	r3, [r3, #1]	@ zero_extendqisi2
 1102 028c 342B     		cmp	r3, #52
 1103 028e 21D1     		bne	.L84
2060:Generated_Source\PSoC5/Bootloader.c ****                 {
2061:Generated_Source\PSoC5/Bootloader.c ****                     if ((Bootloader_COMMUNICATION_STATE_ACTIVE == communicationState) && (pktSize =
 1104              		.loc 1 2061 0
 1105 0290 97F8A032 		ldrb	r3, [r7, #672]	@ zero_extendqisi2
 1106 0294 012B     		cmp	r3, #1
 1107 0296 40F05182 		bne	.L68
 1108              		.loc 1 2061 0 is_stmt 0 discriminator 1
 1109 029a B7F8A232 		ldrh	r3, [r7, #674]
 1110 029e 032B     		cmp	r3, #3
 1111 02a0 40F04C82 		bne	.L68
2062:Generated_Source\PSoC5/Bootloader.c ****                     {
2063:Generated_Source\PSoC5/Bootloader.c ****                         #if(!CY_PSOC4)
2064:Generated_Source\PSoC5/Bootloader.c ****                             if((btldrData >= Bootloader_FIRST_EE_ARRAYID) &&
 1112              		.loc 1 2064 0 is_stmt 1
ARM GAS  C:\Users\jobaek\AppData\Local\Temp\ccG7Gfbb.s 			page 57


 1113 02a4 97F88D32 		ldrb	r3, [r7, #653]	@ zero_extendqisi2
 1114 02a8 3F2B     		cmp	r3, #63
 1115 02aa 07D9     		bls	.L85
2065:Generated_Source\PSoC5/Bootloader.c ****                                (btldrData <= Bootloader_LAST_EE_ARRAYID))
 1116              		.loc 1 2065 0 discriminator 1
 1117 02ac 97F98D32 		ldrsb	r3, [r7, #653]
2064:Generated_Source\PSoC5/Bootloader.c ****                                (btldrData <= Bootloader_LAST_EE_ARRAYID))
 1118              		.loc 1 2064 0 discriminator 1
 1119 02b0 002B     		cmp	r3, #0
 1120 02b2 03DB     		blt	.L85
2066:Generated_Source\PSoC5/Bootloader.c ****                             {
2067:Generated_Source\PSoC5/Bootloader.c ****                                 /* Size of EEPROM row */
2068:Generated_Source\PSoC5/Bootloader.c ****                                 dataOffset = CY_EEPROM_SIZEOF_ROW;
 1121              		.loc 1 2068 0
 1122 02b4 1023     		movs	r3, #16
 1123 02b6 A7F89E32 		strh	r3, [r7, #670]	@ movhi
 1124 02ba 03E0     		b	.L86
 1125              	.L85:
2069:Generated_Source\PSoC5/Bootloader.c ****                             }
2070:Generated_Source\PSoC5/Bootloader.c ****                             else
2071:Generated_Source\PSoC5/Bootloader.c ****                             {
2072:Generated_Source\PSoC5/Bootloader.c ****                                 /* Size of flash row (depends on ECC configuration) */
2073:Generated_Source\PSoC5/Bootloader.c ****                                 dataOffset = Bootloader_FROW_SIZE;
 1126              		.loc 1 2073 0
 1127 02bc 4FF49073 		mov	r3, #288
 1128 02c0 A7F89E32 		strh	r3, [r7, #670]	@ movhi
 1129              	.L86:
2074:Generated_Source\PSoC5/Bootloader.c ****                             }
2075:Generated_Source\PSoC5/Bootloader.c ****                         #else
2076:Generated_Source\PSoC5/Bootloader.c ****                             /* Size of flash row (no ECC available) */
2077:Generated_Source\PSoC5/Bootloader.c ****                             dataOffset = Bootloader_FROW_SIZE;
2078:Generated_Source\PSoC5/Bootloader.c ****                         #endif  /* (!CY_PSOC4) */
2079:Generated_Source\PSoC5/Bootloader.c **** 
2080:Generated_Source\PSoC5/Bootloader.c ****                         #if(CY_PSOC3)
2081:Generated_Source\PSoC5/Bootloader.c ****                             (void) memset(dataBuffer, (char8) 0, (int16) dataOffset);
2082:Generated_Source\PSoC5/Bootloader.c ****                         #else
2083:Generated_Source\PSoC5/Bootloader.c ****                             (void) memset(dataBuffer, 0, (uint32) dataOffset);
 1130              		.loc 1 2083 0
 1131 02c4 B7F89E22 		ldrh	r2, [r7, #670]
 1132 02c8 07F12803 		add	r3, r7, #40
 1133 02cc 0021     		movs	r1, #0
 1134 02ce 1846     		mov	r0, r3
 1135 02d0 FFF7FEFF 		bl	memset
 1136              	.L84:
2084:Generated_Source\PSoC5/Bootloader.c ****                         #endif  /* (CY_PSOC3) */
2085:Generated_Source\PSoC5/Bootloader.c ****                     }
2086:Generated_Source\PSoC5/Bootloader.c ****                     else
2087:Generated_Source\PSoC5/Bootloader.c ****                     {
2088:Generated_Source\PSoC5/Bootloader.c ****                         break;
2089:Generated_Source\PSoC5/Bootloader.c ****                     }
2090:Generated_Source\PSoC5/Bootloader.c ****                 }
2091:Generated_Source\PSoC5/Bootloader.c **** 
2092:Generated_Source\PSoC5/Bootloader.c ****         #endif  /* (0u != Bootloader_CMD_ERASE_ROW_AVAIL) */
2093:Generated_Source\PSoC5/Bootloader.c **** 
2094:Generated_Source\PSoC5/Bootloader.c **** 
2095:Generated_Source\PSoC5/Bootloader.c ****                 if((Bootloader_COMMUNICATION_STATE_ACTIVE == communicationState) && (pktSize >= 3u)
 1137              		.loc 1 2095 0
ARM GAS  C:\Users\jobaek\AppData\Local\Temp\ccG7Gfbb.s 			page 58


 1138 02d4 97F8A032 		ldrb	r3, [r7, #672]	@ zero_extendqisi2
 1139 02d8 012B     		cmp	r3, #1
 1140 02da 40F02282 		bne	.L128
 1141              		.loc 1 2095 0 is_stmt 0 discriminator 1
 1142 02de B7F8A232 		ldrh	r3, [r7, #674]
 1143 02e2 022B     		cmp	r3, #2
 1144 02e4 40F21D82 		bls	.L128
 1145              	.LBB7:
2096:Generated_Source\PSoC5/Bootloader.c ****                 {
2097:Generated_Source\PSoC5/Bootloader.c ****                     uint16 upperRange;
2098:Generated_Source\PSoC5/Bootloader.c **** 
2099:Generated_Source\PSoC5/Bootloader.c ****                     /* Command may be sent along with last block of data, to program row. */
2100:Generated_Source\PSoC5/Bootloader.c ****                     #if(CY_PSOC3)
2101:Generated_Source\PSoC5/Bootloader.c ****                         (void) memcpy(&dataBuffer[dataOffset],
2102:Generated_Source\PSoC5/Bootloader.c ****                                       &packetBuffer[Bootloader_DATA_ADDR + 3u],
2103:Generated_Source\PSoC5/Bootloader.c ****                                       (int16) pktSize - 3);
2104:Generated_Source\PSoC5/Bootloader.c ****                     #else
2105:Generated_Source\PSoC5/Bootloader.c ****                         (void) memcpy(&dataBuffer[dataOffset],
 1146              		.loc 1 2105 0 is_stmt 1
 1147 02e8 B7F89E32 		ldrh	r3, [r7, #670]
 1148 02ec 07F12802 		add	r2, r7, #40
 1149 02f0 D018     		adds	r0, r2, r3
2106:Generated_Source\PSoC5/Bootloader.c ****                                       &packetBuffer[Bootloader_DATA_ADDR + 3u],
2107:Generated_Source\PSoC5/Bootloader.c ****                                       (uint32) pktSize - 3u);
 1150              		.loc 1 2107 0
 1151 02f2 B7F8A232 		ldrh	r3, [r7, #674]
 1152 02f6 DA1E     		subs	r2, r3, #3
2105:Generated_Source\PSoC5/Bootloader.c ****                                       &packetBuffer[Bootloader_DATA_ADDR + 3u],
 1153              		.loc 1 2105 0
 1154 02f8 07F5AA73 		add	r3, r7, #340
 1155 02fc 0733     		adds	r3, r3, #7
 1156 02fe 1946     		mov	r1, r3
 1157 0300 FFF7FEFF 		bl	memcpy
2108:Generated_Source\PSoC5/Bootloader.c ****                     #endif  /* (CY_PSOC3) */
2109:Generated_Source\PSoC5/Bootloader.c **** 
2110:Generated_Source\PSoC5/Bootloader.c ****                     dataOffset += (pktSize - 3u);
 1158              		.loc 1 2110 0
 1159 0304 B7F89E22 		ldrh	r2, [r7, #670]	@ movhi
 1160 0308 B7F8A232 		ldrh	r3, [r7, #674]	@ movhi
 1161 030c 1344     		add	r3, r3, r2
 1162 030e 9BB2     		uxth	r3, r3
 1163 0310 033B     		subs	r3, r3, #3
 1164 0312 A7F89E32 		strh	r3, [r7, #670]	@ movhi
2111:Generated_Source\PSoC5/Bootloader.c **** 
2112:Generated_Source\PSoC5/Bootloader.c ****                     #if(!CY_PSOC4)
2113:Generated_Source\PSoC5/Bootloader.c ****                         if((btldrData >= Bootloader_FIRST_EE_ARRAYID) &&
 1165              		.loc 1 2113 0
 1166 0316 97F88D32 		ldrb	r3, [r7, #653]	@ zero_extendqisi2
 1167 031a 3F2B     		cmp	r3, #63
 1168 031c 0CD9     		bls	.L88
2114:Generated_Source\PSoC5/Bootloader.c ****                            (btldrData <= Bootloader_LAST_EE_ARRAYID))
 1169              		.loc 1 2114 0 discriminator 1
 1170 031e 97F98D32 		ldrsb	r3, [r7, #653]
2113:Generated_Source\PSoC5/Bootloader.c ****                            (btldrData <= Bootloader_LAST_EE_ARRAYID))
 1171              		.loc 1 2113 0 discriminator 1
 1172 0322 002B     		cmp	r3, #0
 1173 0324 08DB     		blt	.L88
ARM GAS  C:\Users\jobaek\AppData\Local\Temp\ccG7Gfbb.s 			page 59


2115:Generated_Source\PSoC5/Bootloader.c ****                         {
2116:Generated_Source\PSoC5/Bootloader.c ****                             CyEEPROM_Start();
 1174              		.loc 1 2116 0
 1175 0326 FFF7FEFF 		bl	CyEEPROM_Start
2117:Generated_Source\PSoC5/Bootloader.c **** 
2118:Generated_Source\PSoC5/Bootloader.c ****                             /* Size of EEPROM row */
2119:Generated_Source\PSoC5/Bootloader.c ****                             pktSize = CY_EEPROM_SIZEOF_ROW;                            
 1176              		.loc 1 2119 0
 1177 032a 1023     		movs	r3, #16
 1178 032c A7F8A232 		strh	r3, [r7, #674]	@ movhi
2120:Generated_Source\PSoC5/Bootloader.c ****                             upperRange = Bootloader_NUMBER_OF_EEPROM_SECTORS * Bootloader_NUMBER_OF
 1179              		.loc 1 2120 0
 1180 0330 8023     		movs	r3, #128
 1181 0332 A7F89A32 		strh	r3, [r7, #666]	@ movhi
 1182 0336 07E0     		b	.L89
 1183              	.L88:
2121:Generated_Source\PSoC5/Bootloader.c ****                         }
2122:Generated_Source\PSoC5/Bootloader.c ****                         else
2123:Generated_Source\PSoC5/Bootloader.c ****                         {
2124:Generated_Source\PSoC5/Bootloader.c ****                             /* Size of flash row (depends on ECC configuration) */
2125:Generated_Source\PSoC5/Bootloader.c ****                             pktSize = Bootloader_FROW_SIZE;                            
 1184              		.loc 1 2125 0
 1185 0338 4FF49073 		mov	r3, #288
 1186 033c A7F8A232 		strh	r3, [r7, #674]	@ movhi
2126:Generated_Source\PSoC5/Bootloader.c ****                             upperRange = Bootloader_NUMBER_OF_ROWS_IN_ARRAY;
 1187              		.loc 1 2126 0
 1188 0340 4FF48073 		mov	r3, #256
 1189 0344 A7F89A32 		strh	r3, [r7, #666]	@ movhi
 1190              	.L89:
2127:Generated_Source\PSoC5/Bootloader.c ****                         }
2128:Generated_Source\PSoC5/Bootloader.c ****                     #else
2129:Generated_Source\PSoC5/Bootloader.c ****                         /* Size of flash row (no ECC available) */
2130:Generated_Source\PSoC5/Bootloader.c ****                         pktSize = Bootloader_FROW_SIZE;                            
2131:Generated_Source\PSoC5/Bootloader.c ****                         upperRange = Bootloader_NUMBER_OF_ROWS_IN_ARRAY;
2132:Generated_Source\PSoC5/Bootloader.c ****                     #endif  /* (!CY_PSOC4) */
2133:Generated_Source\PSoC5/Bootloader.c **** 
2134:Generated_Source\PSoC5/Bootloader.c ****                     /* Check if we have all data to program */
2135:Generated_Source\PSoC5/Bootloader.c ****                     if(dataOffset == pktSize)
 1191              		.loc 1 2135 0
 1192 0348 B7F89E22 		ldrh	r2, [r7, #670]
 1193 034c B7F8A232 		ldrh	r3, [r7, #674]
 1194 0350 9A42     		cmp	r2, r3
 1195 0352 5DD1     		bne	.L90
 1196              	.LBB8:
2136:Generated_Source\PSoC5/Bootloader.c ****                     {
2137:Generated_Source\PSoC5/Bootloader.c ****                         uint16 row;
2138:Generated_Source\PSoC5/Bootloader.c ****                         uint16 firstRow;    
2139:Generated_Source\PSoC5/Bootloader.c ****                     #if ((0u != Bootloader_DUAL_APP_BOOTLOADER) && \
2140:Generated_Source\PSoC5/Bootloader.c ****                           (1u == Bootloader_GOLDEN_IMAGE_AVAIL))
2141:Generated_Source\PSoC5/Bootloader.c ****                         cystatus goldenImageValid;
2142:Generated_Source\PSoC5/Bootloader.c ****                     #endif /*(((0u != Bootloader_DUAL_APP_BOOTLOADER) &&
2143:Generated_Source\PSoC5/Bootloader.c ****                                (1u == Bootloader_GOLDEN_IMAGE_AVAIL))*/
2144:Generated_Source\PSoC5/Bootloader.c **** 
2145:Generated_Source\PSoC5/Bootloader.c ****                         /* Get flash/EEPROM row number inside array */
2146:Generated_Source\PSoC5/Bootloader.c ****                         dataOffset = ((uint16)((uint16)packetBuffer[Bootloader_DATA_ADDR + 2u] << 8
 1197              		.loc 1 2146 0
 1198 0354 07F5AA73 		add	r3, r7, #340
ARM GAS  C:\Users\jobaek\AppData\Local\Temp\ccG7Gfbb.s 			page 60


 1199 0358 9B79     		ldrb	r3, [r3, #6]	@ zero_extendqisi2
 1200 035a 9BB2     		uxth	r3, r3
 1201 035c 1B02     		lsls	r3, r3, #8
 1202 035e 9AB2     		uxth	r2, r3
2147:Generated_Source\PSoC5/Bootloader.c ****                                               packetBuffer[Bootloader_DATA_ADDR + 1u];
 1203              		.loc 1 2147 0
 1204 0360 07F5AA73 		add	r3, r7, #340
 1205 0364 5B79     		ldrb	r3, [r3, #5]	@ zero_extendqisi2
2146:Generated_Source\PSoC5/Bootloader.c ****                                               packetBuffer[Bootloader_DATA_ADDR + 1u];
 1206              		.loc 1 2146 0
 1207 0366 9BB2     		uxth	r3, r3
 1208 0368 1343     		orrs	r3, r3, r2
 1209 036a A7F89E32 		strh	r3, [r7, #670]	@ movhi
2148:Generated_Source\PSoC5/Bootloader.c **** 
2149:Generated_Source\PSoC5/Bootloader.c ****                         /*Checking if row number is within array address range*/
2150:Generated_Source\PSoC5/Bootloader.c ****                         ackCode = Bootloader_CHECK_ROW_NUMBER(dataOffset, upperRange);
 1210              		.loc 1 2150 0
 1211 036e B7F89E22 		ldrh	r2, [r7, #670]
 1212 0372 B7F89A32 		ldrh	r3, [r7, #666]
 1213 0376 9A42     		cmp	r2, r3
 1214 0378 01D2     		bcs	.L91
 1215              		.loc 1 2150 0 is_stmt 0 discriminator 1
 1216 037a 0023     		movs	r3, #0
 1217 037c 00E0     		b	.L92
 1218              	.L91:
 1219              		.loc 1 2150 0 discriminator 2
 1220 037e 0A23     		movs	r3, #10
 1221              	.L92:
 1222              		.loc 1 2150 0 discriminator 4
 1223 0380 87F8A532 		strb	r3, [r7, #677]
2151:Generated_Source\PSoC5/Bootloader.c ****                     
2152:Generated_Source\PSoC5/Bootloader.c ****                         if (CYRET_SUCCESS != ackCode)
 1224              		.loc 1 2152 0 is_stmt 1 discriminator 4
 1225 0384 97F8A532 		ldrb	r3, [r7, #677]	@ zero_extendqisi2
 1226 0388 002B     		cmp	r3, #0
 1227 038a 40F0CC81 		bne	.L129
2153:Generated_Source\PSoC5/Bootloader.c ****                         {
2154:Generated_Source\PSoC5/Bootloader.c ****                             break;
2155:Generated_Source\PSoC5/Bootloader.c ****                         }
2156:Generated_Source\PSoC5/Bootloader.c ****                         
2157:Generated_Source\PSoC5/Bootloader.c ****                         /* Metadata section resides in flash (cannot be in EEPROM). */
2158:Generated_Source\PSoC5/Bootloader.c ****                         #if(!CY_PSOC4)
2159:Generated_Source\PSoC5/Bootloader.c ****                             if(btldrData <= Bootloader_LAST_FLASH_ARRAYID)
 1228              		.loc 1 2159 0
 1229 038e 97F88D32 		ldrb	r3, [r7, #653]	@ zero_extendqisi2
 1230 0392 3F2B     		cmp	r3, #63
 1231 0394 27D8     		bhi	.L94
2160:Generated_Source\PSoC5/Bootloader.c ****                             {
2161:Generated_Source\PSoC5/Bootloader.c ****                         #endif  /* (!CY_PSOC4) */
2162:Generated_Source\PSoC5/Bootloader.c ****                 
2163:Generated_Source\PSoC5/Bootloader.c ****                         /* btldrData  - holds flash array Id sent by host */
2164:Generated_Source\PSoC5/Bootloader.c ****                         /* dataOffset - holds flash row Id sent by host   */
2165:Generated_Source\PSoC5/Bootloader.c ****                         row = (uint16)(btldrData * Bootloader_NUMBER_OF_ROWS_IN_ARRAY) + dataOffset
 1232              		.loc 1 2165 0
 1233 0396 97F88D32 		ldrb	r3, [r7, #653]	@ zero_extendqisi2
 1234 039a 9BB2     		uxth	r3, r3
 1235 039c 1B02     		lsls	r3, r3, #8
ARM GAS  C:\Users\jobaek\AppData\Local\Temp\ccG7Gfbb.s 			page 61


 1236 039e 9AB2     		uxth	r2, r3
 1237 03a0 B7F89E32 		ldrh	r3, [r7, #670]	@ movhi
 1238 03a4 1344     		add	r3, r3, r2
 1239 03a6 A7F88A32 		strh	r3, [r7, #650]	@ movhi
2166:Generated_Source\PSoC5/Bootloader.c ****                 
2167:Generated_Source\PSoC5/Bootloader.c ****                         /**************************************************************************
2168:Generated_Source\PSoC5/Bootloader.c ****                         * Refuse to write to the row within range of the bootloader application
2169:Generated_Source\PSoC5/Bootloader.c ****                         ***************************************************************************
2170:Generated_Source\PSoC5/Bootloader.c **** 
2171:Generated_Source\PSoC5/Bootloader.c ****                         /* First empty flash row after Bootloader application */
2172:Generated_Source\PSoC5/Bootloader.c ****                         #if (CYDEV_PROJ_TYPE != CYDEV_PROJ_TYPE_LOADABLEANDBOOTLOADER)    
2173:Generated_Source\PSoC5/Bootloader.c ****                             firstRow = (uint16) (*Bootloader_SizeBytesAccess / CYDEV_FLS_ROW_SIZE);
 1240              		.loc 1 2173 0
 1241 03aa 6F4B     		ldr	r3, .L135
 1242 03ac 1B68     		ldr	r3, [r3]
 1243 03ae 1B68     		ldr	r3, [r3]
 1244 03b0 1B0A     		lsrs	r3, r3, #8
