ARM GAS  C:\Users\jobaek\AppData\Local\Temp\ccZH4Gvc.s 			page 1


   1              		.syntax unified
   2              		.cpu cortex-m3
   3              		.fpu softvfp
   4              		.eabi_attribute 20, 1
   5              		.eabi_attribute 21, 1
   6              		.eabi_attribute 23, 3
   7              		.eabi_attribute 24, 1
   8              		.eabi_attribute 25, 1
   9              		.eabi_attribute 26, 1
  10              		.eabi_attribute 30, 6
  11              		.eabi_attribute 34, 1
  12              		.eabi_attribute 18, 4
  13              		.thumb
  14              		.syntax unified
  15              		.file	"UART_BOOT.c"
  16              		.text
  17              	.Ltext0:
  18              		.cfi_sections	.debug_frame
  19              		.section	.text.UART_CyBtldrCommStart,"ax",%progbits
  20              		.align	2
  21              		.global	UART_CyBtldrCommStart
  22              		.thumb
  23              		.thumb_func
  24              		.type	UART_CyBtldrCommStart, %function
  25              	UART_CyBtldrCommStart:
  26              	.LFB0:
  27              		.file 1 "Generated_Source\\PSoC5\\UART_BOOT.c"
   1:Generated_Source\PSoC5/UART_BOOT.c **** /*******************************************************************************
   2:Generated_Source\PSoC5/UART_BOOT.c **** * File Name: UART_BOOT.c
   3:Generated_Source\PSoC5/UART_BOOT.c **** * Version 2.50
   4:Generated_Source\PSoC5/UART_BOOT.c **** *
   5:Generated_Source\PSoC5/UART_BOOT.c **** * Description:
   6:Generated_Source\PSoC5/UART_BOOT.c **** *  This file provides the source code of bootloader communication APIs for the
   7:Generated_Source\PSoC5/UART_BOOT.c **** *  UART component.
   8:Generated_Source\PSoC5/UART_BOOT.c **** *
   9:Generated_Source\PSoC5/UART_BOOT.c **** * Note:
  10:Generated_Source\PSoC5/UART_BOOT.c **** *
  11:Generated_Source\PSoC5/UART_BOOT.c **** ********************************************************************************
  12:Generated_Source\PSoC5/UART_BOOT.c **** * Copyright 2008-2015, Cypress Semiconductor Corporation.  All rights reserved.
  13:Generated_Source\PSoC5/UART_BOOT.c **** * You may use this file only in accordance with the license, terms, conditions,
  14:Generated_Source\PSoC5/UART_BOOT.c **** * disclaimers, and limitations in the end user license agreement accompanying
  15:Generated_Source\PSoC5/UART_BOOT.c **** * the software package with which this file was provided.
  16:Generated_Source\PSoC5/UART_BOOT.c **** *******************************************************************************/
  17:Generated_Source\PSoC5/UART_BOOT.c **** 
  18:Generated_Source\PSoC5/UART_BOOT.c **** #include "UART.h"
  19:Generated_Source\PSoC5/UART_BOOT.c **** 
  20:Generated_Source\PSoC5/UART_BOOT.c **** #if defined(CYDEV_BOOTLOADER_IO_COMP) && (0u != ((CYDEV_BOOTLOADER_IO_COMP == CyBtldr_UART) || \
  21:Generated_Source\PSoC5/UART_BOOT.c ****                                           (CYDEV_BOOTLOADER_IO_COMP == CyBtldr_Custom_Interface)))
  22:Generated_Source\PSoC5/UART_BOOT.c **** 
  23:Generated_Source\PSoC5/UART_BOOT.c **** 
  24:Generated_Source\PSoC5/UART_BOOT.c **** /*******************************************************************************
  25:Generated_Source\PSoC5/UART_BOOT.c **** * Function Name: UART_CyBtldrCommStart
  26:Generated_Source\PSoC5/UART_BOOT.c **** ********************************************************************************
  27:Generated_Source\PSoC5/UART_BOOT.c **** *
  28:Generated_Source\PSoC5/UART_BOOT.c **** * Summary:
  29:Generated_Source\PSoC5/UART_BOOT.c **** *  Starts the UART communication component.
  30:Generated_Source\PSoC5/UART_BOOT.c **** *
ARM GAS  C:\Users\jobaek\AppData\Local\Temp\ccZH4Gvc.s 			page 2


  31:Generated_Source\PSoC5/UART_BOOT.c **** * Parameters:
  32:Generated_Source\PSoC5/UART_BOOT.c **** *  None
  33:Generated_Source\PSoC5/UART_BOOT.c **** *
  34:Generated_Source\PSoC5/UART_BOOT.c **** * Return:
  35:Generated_Source\PSoC5/UART_BOOT.c **** *  None
  36:Generated_Source\PSoC5/UART_BOOT.c **** *
  37:Generated_Source\PSoC5/UART_BOOT.c **** * Side Effects:
  38:Generated_Source\PSoC5/UART_BOOT.c **** *  This component automatically enables global interrupt.
  39:Generated_Source\PSoC5/UART_BOOT.c **** *
  40:Generated_Source\PSoC5/UART_BOOT.c **** *******************************************************************************/
  41:Generated_Source\PSoC5/UART_BOOT.c **** void UART_CyBtldrCommStart(void) CYSMALL 
  42:Generated_Source\PSoC5/UART_BOOT.c **** {
  28              		.loc 1 42 0
  29              		.cfi_startproc
  30              		@ args = 0, pretend = 0, frame = 0
  31              		@ frame_needed = 1, uses_anonymous_args = 0
  32 0000 80B5     		push	{r7, lr}
  33              		.cfi_def_cfa_offset 8
  34              		.cfi_offset 7, -8
  35              		.cfi_offset 14, -4
  36 0002 00AF     		add	r7, sp, #0
  37              		.cfi_def_cfa_register 7
  43:Generated_Source\PSoC5/UART_BOOT.c ****     /* Start UART component and clear the Tx,Rx buffers */
  44:Generated_Source\PSoC5/UART_BOOT.c ****     UART_Start();
  38              		.loc 1 44 0
  39 0004 FFF7FEFF 		bl	UART_Start
  45:Generated_Source\PSoC5/UART_BOOT.c ****     UART_ClearRxBuffer();
  40              		.loc 1 45 0
  41 0008 FFF7FEFF 		bl	UART_ClearRxBuffer
  46:Generated_Source\PSoC5/UART_BOOT.c ****     UART_ClearTxBuffer();
  42              		.loc 1 46 0
  43 000c FFF7FEFF 		bl	UART_ClearTxBuffer
  47:Generated_Source\PSoC5/UART_BOOT.c **** }
  44              		.loc 1 47 0
  45 0010 00BF     		nop
  46 0012 80BD     		pop	{r7, pc}
  47              		.cfi_endproc
  48              	.LFE0:
  49              		.size	UART_CyBtldrCommStart, .-UART_CyBtldrCommStart
  50              		.section	.text.UART_CyBtldrCommStop,"ax",%progbits
  51              		.align	2
  52              		.global	UART_CyBtldrCommStop
  53              		.thumb
  54              		.thumb_func
  55              		.type	UART_CyBtldrCommStop, %function
  56              	UART_CyBtldrCommStop:
  57              	.LFB1:
  48:Generated_Source\PSoC5/UART_BOOT.c **** 
  49:Generated_Source\PSoC5/UART_BOOT.c **** 
  50:Generated_Source\PSoC5/UART_BOOT.c **** /*******************************************************************************
  51:Generated_Source\PSoC5/UART_BOOT.c **** * Function Name: UART_CyBtldrCommStop
  52:Generated_Source\PSoC5/UART_BOOT.c **** ********************************************************************************
  53:Generated_Source\PSoC5/UART_BOOT.c **** *
  54:Generated_Source\PSoC5/UART_BOOT.c **** * Summary:
  55:Generated_Source\PSoC5/UART_BOOT.c **** *  Disables the communication component and disables the interrupt.
  56:Generated_Source\PSoC5/UART_BOOT.c **** *
  57:Generated_Source\PSoC5/UART_BOOT.c **** * Parameters:
ARM GAS  C:\Users\jobaek\AppData\Local\Temp\ccZH4Gvc.s 			page 3


  58:Generated_Source\PSoC5/UART_BOOT.c **** *  None
  59:Generated_Source\PSoC5/UART_BOOT.c **** *
  60:Generated_Source\PSoC5/UART_BOOT.c **** * Return:
  61:Generated_Source\PSoC5/UART_BOOT.c **** *  None
  62:Generated_Source\PSoC5/UART_BOOT.c **** *
  63:Generated_Source\PSoC5/UART_BOOT.c **** *******************************************************************************/
  64:Generated_Source\PSoC5/UART_BOOT.c **** void UART_CyBtldrCommStop(void) CYSMALL 
  65:Generated_Source\PSoC5/UART_BOOT.c **** {
  58              		.loc 1 65 0
  59              		.cfi_startproc
  60              		@ args = 0, pretend = 0, frame = 0
  61              		@ frame_needed = 1, uses_anonymous_args = 0
  62 0000 80B5     		push	{r7, lr}
  63              		.cfi_def_cfa_offset 8
  64              		.cfi_offset 7, -8
  65              		.cfi_offset 14, -4
  66 0002 00AF     		add	r7, sp, #0
  67              		.cfi_def_cfa_register 7
  66:Generated_Source\PSoC5/UART_BOOT.c ****     /* Stop UART component */
  67:Generated_Source\PSoC5/UART_BOOT.c ****     UART_Stop();
  68              		.loc 1 67 0
  69 0004 FFF7FEFF 		bl	UART_Stop
  68:Generated_Source\PSoC5/UART_BOOT.c **** }
  70              		.loc 1 68 0
  71 0008 00BF     		nop
  72 000a 80BD     		pop	{r7, pc}
  73              		.cfi_endproc
  74              	.LFE1:
  75              		.size	UART_CyBtldrCommStop, .-UART_CyBtldrCommStop
  76              		.section	.text.UART_CyBtldrCommReset,"ax",%progbits
  77              		.align	2
  78              		.global	UART_CyBtldrCommReset
  79              		.thumb
  80              		.thumb_func
  81              		.type	UART_CyBtldrCommReset, %function
  82              	UART_CyBtldrCommReset:
  83              	.LFB2:
  69:Generated_Source\PSoC5/UART_BOOT.c **** 
  70:Generated_Source\PSoC5/UART_BOOT.c **** 
  71:Generated_Source\PSoC5/UART_BOOT.c **** /*******************************************************************************
  72:Generated_Source\PSoC5/UART_BOOT.c **** * Function Name: UART_CyBtldrCommReset
  73:Generated_Source\PSoC5/UART_BOOT.c **** ********************************************************************************
  74:Generated_Source\PSoC5/UART_BOOT.c **** *
  75:Generated_Source\PSoC5/UART_BOOT.c **** * Summary:
  76:Generated_Source\PSoC5/UART_BOOT.c **** *  Resets the receive and transmit communication Buffers.
  77:Generated_Source\PSoC5/UART_BOOT.c **** *
  78:Generated_Source\PSoC5/UART_BOOT.c **** * Parameters:
  79:Generated_Source\PSoC5/UART_BOOT.c **** *  None
  80:Generated_Source\PSoC5/UART_BOOT.c **** *
  81:Generated_Source\PSoC5/UART_BOOT.c **** * Return:
  82:Generated_Source\PSoC5/UART_BOOT.c **** *  None
  83:Generated_Source\PSoC5/UART_BOOT.c **** *
  84:Generated_Source\PSoC5/UART_BOOT.c **** *******************************************************************************/
  85:Generated_Source\PSoC5/UART_BOOT.c **** void UART_CyBtldrCommReset(void) CYSMALL 
  86:Generated_Source\PSoC5/UART_BOOT.c **** {
  84              		.loc 1 86 0
  85              		.cfi_startproc
ARM GAS  C:\Users\jobaek\AppData\Local\Temp\ccZH4Gvc.s 			page 4


  86              		@ args = 0, pretend = 0, frame = 0
  87              		@ frame_needed = 1, uses_anonymous_args = 0
  88 0000 80B5     		push	{r7, lr}
  89              		.cfi_def_cfa_offset 8
  90              		.cfi_offset 7, -8
  91              		.cfi_offset 14, -4
  92 0002 00AF     		add	r7, sp, #0
  93              		.cfi_def_cfa_register 7
  87:Generated_Source\PSoC5/UART_BOOT.c ****     /* Clear RX and TX buffers */
  88:Generated_Source\PSoC5/UART_BOOT.c ****     UART_ClearRxBuffer();
  94              		.loc 1 88 0
  95 0004 FFF7FEFF 		bl	UART_ClearRxBuffer
  89:Generated_Source\PSoC5/UART_BOOT.c ****     UART_ClearTxBuffer();
  96              		.loc 1 89 0
  97 0008 FFF7FEFF 		bl	UART_ClearTxBuffer
  90:Generated_Source\PSoC5/UART_BOOT.c **** }
  98              		.loc 1 90 0
  99 000c 00BF     		nop
 100 000e 80BD     		pop	{r7, pc}
 101              		.cfi_endproc
 102              	.LFE2:
 103              		.size	UART_CyBtldrCommReset, .-UART_CyBtldrCommReset
 104              		.section	.text.UART_CyBtldrCommWrite,"ax",%progbits
 105              		.align	2
 106              		.global	UART_CyBtldrCommWrite
 107              		.thumb
 108              		.thumb_func
 109              		.type	UART_CyBtldrCommWrite, %function
 110              	UART_CyBtldrCommWrite:
 111              	.LFB3:
  91:Generated_Source\PSoC5/UART_BOOT.c **** 
  92:Generated_Source\PSoC5/UART_BOOT.c **** 
  93:Generated_Source\PSoC5/UART_BOOT.c **** /*******************************************************************************
  94:Generated_Source\PSoC5/UART_BOOT.c **** * Function Name: UART_CyBtldrCommWrite
  95:Generated_Source\PSoC5/UART_BOOT.c **** ********************************************************************************
  96:Generated_Source\PSoC5/UART_BOOT.c **** *
  97:Generated_Source\PSoC5/UART_BOOT.c **** * Summary:
  98:Generated_Source\PSoC5/UART_BOOT.c **** *  Allows the caller to write data to the boot loader host. This function uses
  99:Generated_Source\PSoC5/UART_BOOT.c **** * a blocking write function for writing data using UART communication component.
 100:Generated_Source\PSoC5/UART_BOOT.c **** *
 101:Generated_Source\PSoC5/UART_BOOT.c **** * Parameters:
 102:Generated_Source\PSoC5/UART_BOOT.c **** *  pData:    A pointer to the block of data to send to the device
 103:Generated_Source\PSoC5/UART_BOOT.c **** *  size:     The number of bytes to write.
 104:Generated_Source\PSoC5/UART_BOOT.c **** *  count:    Pointer to an unsigned short variable to write the number of
 105:Generated_Source\PSoC5/UART_BOOT.c **** *             bytes actually written.
 106:Generated_Source\PSoC5/UART_BOOT.c **** *  timeOut:  Number of units to wait before returning because of a timeout.
 107:Generated_Source\PSoC5/UART_BOOT.c **** *
 108:Generated_Source\PSoC5/UART_BOOT.c **** * Return:
 109:Generated_Source\PSoC5/UART_BOOT.c **** *   cystatus: This function will return CYRET_SUCCESS if data is sent
 110:Generated_Source\PSoC5/UART_BOOT.c **** *             successfully.
 111:Generated_Source\PSoC5/UART_BOOT.c **** *
 112:Generated_Source\PSoC5/UART_BOOT.c **** * Side Effects:
 113:Generated_Source\PSoC5/UART_BOOT.c **** *  This function should be called after command was received .
 114:Generated_Source\PSoC5/UART_BOOT.c **** *
 115:Generated_Source\PSoC5/UART_BOOT.c **** *******************************************************************************/
 116:Generated_Source\PSoC5/UART_BOOT.c **** cystatus UART_CyBtldrCommWrite(const uint8 pData[], uint16 size, uint16 * count, uint8 timeOut) CYS
 117:Generated_Source\PSoC5/UART_BOOT.c ****          
ARM GAS  C:\Users\jobaek\AppData\Local\Temp\ccZH4Gvc.s 			page 5


 118:Generated_Source\PSoC5/UART_BOOT.c **** {
 112              		.loc 1 118 0
 113              		.cfi_startproc
 114              		@ args = 0, pretend = 0, frame = 24
 115              		@ frame_needed = 1, uses_anonymous_args = 0
 116 0000 80B5     		push	{r7, lr}
 117              		.cfi_def_cfa_offset 8
 118              		.cfi_offset 7, -8
 119              		.cfi_offset 14, -4
 120 0002 86B0     		sub	sp, sp, #24
 121              		.cfi_def_cfa_offset 32
 122 0004 00AF     		add	r7, sp, #0
 123              		.cfi_def_cfa_register 7
 124 0006 F860     		str	r0, [r7, #12]
 125 0008 7A60     		str	r2, [r7, #4]
 126 000a 1A46     		mov	r2, r3
 127 000c 0B46     		mov	r3, r1	@ movhi
 128 000e 7B81     		strh	r3, [r7, #10]	@ movhi
 129 0010 1346     		mov	r3, r2
 130 0012 7B72     		strb	r3, [r7, #9]
 119:Generated_Source\PSoC5/UART_BOOT.c ****     uint16 bufIndex = 0u;
 131              		.loc 1 119 0
 132 0014 0023     		movs	r3, #0
 133 0016 FB82     		strh	r3, [r7, #22]	@ movhi
 120:Generated_Source\PSoC5/UART_BOOT.c **** 
 121:Generated_Source\PSoC5/UART_BOOT.c ****     if(0u != timeOut)
 122:Generated_Source\PSoC5/UART_BOOT.c ****     {
 123:Generated_Source\PSoC5/UART_BOOT.c ****         /* Suppress compiler warning */
 124:Generated_Source\PSoC5/UART_BOOT.c ****     }
 125:Generated_Source\PSoC5/UART_BOOT.c **** 
 126:Generated_Source\PSoC5/UART_BOOT.c ****     /* Clear receive buffers */
 127:Generated_Source\PSoC5/UART_BOOT.c ****     UART_ClearRxBuffer();
 134              		.loc 1 127 0
 135 0018 FFF7FEFF 		bl	UART_ClearRxBuffer
 128:Generated_Source\PSoC5/UART_BOOT.c **** 
 129:Generated_Source\PSoC5/UART_BOOT.c ****     /* Write TX data using blocking function */
 130:Generated_Source\PSoC5/UART_BOOT.c ****     while(bufIndex < size)
 136              		.loc 1 130 0
 137 001c 09E0     		b	.L5
 138              	.L6:
 131:Generated_Source\PSoC5/UART_BOOT.c ****     {
 132:Generated_Source\PSoC5/UART_BOOT.c ****         UART_PutChar(pData[bufIndex]);
 139              		.loc 1 132 0
 140 001e FB8A     		ldrh	r3, [r7, #22]
 141 0020 FA68     		ldr	r2, [r7, #12]
 142 0022 1344     		add	r3, r3, r2
 143 0024 1B78     		ldrb	r3, [r3]	@ zero_extendqisi2
 144 0026 1846     		mov	r0, r3
 145 0028 FFF7FEFF 		bl	UART_PutChar
 133:Generated_Source\PSoC5/UART_BOOT.c ****         bufIndex++;
 146              		.loc 1 133 0
 147 002c FB8A     		ldrh	r3, [r7, #22]
 148 002e 0133     		adds	r3, r3, #1
 149 0030 FB82     		strh	r3, [r7, #22]	@ movhi
 150              	.L5:
 130:Generated_Source\PSoC5/UART_BOOT.c ****     {
 151              		.loc 1 130 0
ARM GAS  C:\Users\jobaek\AppData\Local\Temp\ccZH4Gvc.s 			page 6


 152 0032 FA8A     		ldrh	r2, [r7, #22]
 153 0034 7B89     		ldrh	r3, [r7, #10]
 154 0036 9A42     		cmp	r2, r3
 155 0038 F1D3     		bcc	.L6
 134:Generated_Source\PSoC5/UART_BOOT.c ****     }
 135:Generated_Source\PSoC5/UART_BOOT.c **** 
 136:Generated_Source\PSoC5/UART_BOOT.c ****     /* Return success code */
 137:Generated_Source\PSoC5/UART_BOOT.c ****     *count = size;
 156              		.loc 1 137 0
 157 003a 7B68     		ldr	r3, [r7, #4]
 158 003c 7A89     		ldrh	r2, [r7, #10]	@ movhi
 159 003e 1A80     		strh	r2, [r3]	@ movhi
 138:Generated_Source\PSoC5/UART_BOOT.c **** 
 139:Generated_Source\PSoC5/UART_BOOT.c ****     return (CYRET_SUCCESS);
 160              		.loc 1 139 0
 161 0040 0023     		movs	r3, #0
 140:Generated_Source\PSoC5/UART_BOOT.c **** }
 162              		.loc 1 140 0
 163 0042 1846     		mov	r0, r3
 164 0044 1837     		adds	r7, r7, #24
 165              		.cfi_def_cfa_offset 8
 166 0046 BD46     		mov	sp, r7
 167              		.cfi_def_cfa_register 13
 168              		@ sp needed
 169 0048 80BD     		pop	{r7, pc}
 170              		.cfi_endproc
 171              	.LFE3:
 172              		.size	UART_CyBtldrCommWrite, .-UART_CyBtldrCommWrite
 173 004a 00BF     		.section	.text.UART_CyBtldrCommRead,"ax",%progbits
 174              		.align	2
 175              		.global	UART_CyBtldrCommRead
 176              		.thumb
 177              		.thumb_func
 178              		.type	UART_CyBtldrCommRead, %function
 179              	UART_CyBtldrCommRead:
 180              	.LFB4:
 141:Generated_Source\PSoC5/UART_BOOT.c **** 
 142:Generated_Source\PSoC5/UART_BOOT.c **** 
 143:Generated_Source\PSoC5/UART_BOOT.c **** /*******************************************************************************
 144:Generated_Source\PSoC5/UART_BOOT.c **** * Function Name: UART_CyBtldrCommRead
 145:Generated_Source\PSoC5/UART_BOOT.c **** ********************************************************************************
 146:Generated_Source\PSoC5/UART_BOOT.c **** *
 147:Generated_Source\PSoC5/UART_BOOT.c **** * Summary:
 148:Generated_Source\PSoC5/UART_BOOT.c **** *  Receives the command.
 149:Generated_Source\PSoC5/UART_BOOT.c **** *
 150:Generated_Source\PSoC5/UART_BOOT.c **** * Parameters:
 151:Generated_Source\PSoC5/UART_BOOT.c **** *  pData:    A pointer to the area to store the block of data received
 152:Generated_Source\PSoC5/UART_BOOT.c **** *             from the device.
 153:Generated_Source\PSoC5/UART_BOOT.c **** *  size:     Maximum size of the read buffer
 154:Generated_Source\PSoC5/UART_BOOT.c **** *  count:    Pointer to an unsigned short variable to write the number
 155:Generated_Source\PSoC5/UART_BOOT.c **** *             of bytes actually read.
 156:Generated_Source\PSoC5/UART_BOOT.c **** *  timeOut:  Number of units to wait before returning because of a timeOut.
 157:Generated_Source\PSoC5/UART_BOOT.c **** *            Time out is measured in 10s of ms.
 158:Generated_Source\PSoC5/UART_BOOT.c **** *
 159:Generated_Source\PSoC5/UART_BOOT.c **** * Return:
 160:Generated_Source\PSoC5/UART_BOOT.c **** *  cystatus: This function will return CYRET_SUCCESS if at least one byte is
 161:Generated_Source\PSoC5/UART_BOOT.c **** *            received successfully within the time out interval. If no data is
ARM GAS  C:\Users\jobaek\AppData\Local\Temp\ccZH4Gvc.s 			page 7


 162:Generated_Source\PSoC5/UART_BOOT.c **** *            received  this function will return CYRET_EMPTY.
 163:Generated_Source\PSoC5/UART_BOOT.c **** *
 164:Generated_Source\PSoC5/UART_BOOT.c **** *  BYTE2BYTE_TIME_OUT is used for detecting time out marking end of block data
 165:Generated_Source\PSoC5/UART_BOOT.c **** *  from host. This has to be set to a value which is greater than the expected
 166:Generated_Source\PSoC5/UART_BOOT.c **** *  maximum delay between two bytes during a block/packet transmission from the
 167:Generated_Source\PSoC5/UART_BOOT.c **** *  host. You have to account for the delay in hardware converters while
 168:Generated_Source\PSoC5/UART_BOOT.c **** *  calculating this value, if you are using any USB-UART bridges.
 169:Generated_Source\PSoC5/UART_BOOT.c **** *******************************************************************************/
 170:Generated_Source\PSoC5/UART_BOOT.c **** cystatus UART_CyBtldrCommRead(uint8 pData[], uint16 size, uint16 * count, uint8 timeOut) CYSMALL
 171:Generated_Source\PSoC5/UART_BOOT.c ****          
 172:Generated_Source\PSoC5/UART_BOOT.c **** {
 181              		.loc 1 172 0
 182              		.cfi_startproc
 183              		@ args = 0, pretend = 0, frame = 32
 184              		@ frame_needed = 1, uses_anonymous_args = 0
 185 0000 90B5     		push	{r4, r7, lr}
 186              		.cfi_def_cfa_offset 12
 187              		.cfi_offset 4, -12
 188              		.cfi_offset 7, -8
 189              		.cfi_offset 14, -4
 190 0002 89B0     		sub	sp, sp, #36
 191              		.cfi_def_cfa_offset 48
 192 0004 00AF     		add	r7, sp, #0
 193              		.cfi_def_cfa_register 7
 194 0006 F860     		str	r0, [r7, #12]
 195 0008 7A60     		str	r2, [r7, #4]
 196 000a 1A46     		mov	r2, r3
 197 000c 0B46     		mov	r3, r1	@ movhi
 198 000e 7B81     		strh	r3, [r7, #10]	@ movhi
 199 0010 1346     		mov	r3, r2
 200 0012 7B72     		strb	r3, [r7, #9]
 173:Generated_Source\PSoC5/UART_BOOT.c ****     uint16 iCntr;
 174:Generated_Source\PSoC5/UART_BOOT.c ****     uint16 dataIndexCntr;
 175:Generated_Source\PSoC5/UART_BOOT.c ****     uint16 tempCount;
 176:Generated_Source\PSoC5/UART_BOOT.c ****     uint16 oldDataCount;
 177:Generated_Source\PSoC5/UART_BOOT.c **** 
 178:Generated_Source\PSoC5/UART_BOOT.c ****     cystatus status = CYRET_EMPTY;
 201              		.loc 1 178 0
 202 0014 0523     		movs	r3, #5
 203 0016 BB61     		str	r3, [r7, #24]
 179:Generated_Source\PSoC5/UART_BOOT.c **** 
 180:Generated_Source\PSoC5/UART_BOOT.c ****     /* Check whether data is received within the time out period.
 181:Generated_Source\PSoC5/UART_BOOT.c ****     *  Time out period is in units of 10ms.
 182:Generated_Source\PSoC5/UART_BOOT.c ****     *  If at least one byte is received within the time out interval, wait for more data */
 183:Generated_Source\PSoC5/UART_BOOT.c ****     for (iCntr = 0u; iCntr < ((uint16)10u * timeOut); iCntr++)
 204              		.loc 1 183 0
 205 0018 0023     		movs	r3, #0
 206 001a FB83     		strh	r3, [r7, #30]	@ movhi
 207 001c 1BE0     		b	.L9
 208              	.L13:
 184:Generated_Source\PSoC5/UART_BOOT.c ****     {
 185:Generated_Source\PSoC5/UART_BOOT.c ****         /* If at least one byte is received within the timeout interval
 186:Generated_Source\PSoC5/UART_BOOT.c ****         *  enter the next loop waiting for more data reception
 187:Generated_Source\PSoC5/UART_BOOT.c ****         */
 188:Generated_Source\PSoC5/UART_BOOT.c ****         if(0u != UART_GetRxBufferSize())
 209              		.loc 1 188 0
 210 001e FFF7FEFF 		bl	UART_GetRxBufferSize
ARM GAS  C:\Users\jobaek\AppData\Local\Temp\ccZH4Gvc.s 			page 8


 211 0022 0346     		mov	r3, r0
 212 0024 002B     		cmp	r3, #0
 213 0026 10D0     		beq	.L10
 214              	.L11:
 189:Generated_Source\PSoC5/UART_BOOT.c ****         {
 190:Generated_Source\PSoC5/UART_BOOT.c ****             /* Wait for more data until 25ms byte to byte time out interval.
 191:Generated_Source\PSoC5/UART_BOOT.c ****             * If no data is received during the last 25 ms(BYTE2BYTE_TIME_OUT)
 192:Generated_Source\PSoC5/UART_BOOT.c ****             * then it is considered as end of transmitted data block(packet)
 193:Generated_Source\PSoC5/UART_BOOT.c ****             * from the host and the program execution will break from the
 194:Generated_Source\PSoC5/UART_BOOT.c ****             * data awaiting loop with status=CYRET_SUCCESS
 195:Generated_Source\PSoC5/UART_BOOT.c ****             */
 196:Generated_Source\PSoC5/UART_BOOT.c ****             do
 197:Generated_Source\PSoC5/UART_BOOT.c ****             {
 198:Generated_Source\PSoC5/UART_BOOT.c ****                 oldDataCount = UART_GetRxBufferSize();
 215              		.loc 1 198 0 discriminator 1
 216 0028 FFF7FEFF 		bl	UART_GetRxBufferSize
 217 002c 0346     		mov	r3, r0
 218 002e FB82     		strh	r3, [r7, #22]	@ movhi
 199:Generated_Source\PSoC5/UART_BOOT.c ****                 CyDelay(UART_BYTE2BYTE_TIME_OUT);
 219              		.loc 1 199 0 discriminator 1
 220 0030 1920     		movs	r0, #25
 221 0032 FFF7FEFF 		bl	CyDelay
 200:Generated_Source\PSoC5/UART_BOOT.c ****             }
 201:Generated_Source\PSoC5/UART_BOOT.c ****             while(UART_GetRxBufferSize() > oldDataCount);
 222              		.loc 1 201 0 discriminator 1
 223 0036 FFF7FEFF 		bl	UART_GetRxBufferSize
 224 003a 0346     		mov	r3, r0
 225 003c 9BB2     		uxth	r3, r3
 226 003e FA8A     		ldrh	r2, [r7, #22]
 227 0040 9A42     		cmp	r2, r3
 228 0042 F1D3     		bcc	.L11
 202:Generated_Source\PSoC5/UART_BOOT.c **** 
 203:Generated_Source\PSoC5/UART_BOOT.c ****             status = CYRET_SUCCESS;
 229              		.loc 1 203 0
 230 0044 0023     		movs	r3, #0
 231 0046 BB61     		str	r3, [r7, #24]
 204:Generated_Source\PSoC5/UART_BOOT.c ****             break;
 232              		.loc 1 204 0
 233 0048 0DE0     		b	.L12
 234              	.L10:
 205:Generated_Source\PSoC5/UART_BOOT.c ****         }
 206:Generated_Source\PSoC5/UART_BOOT.c ****         /* If the data is not received, give a delay of 
 207:Generated_Source\PSoC5/UART_BOOT.c ****         *  UART_BL_CHK_DELAY_MS and check again until the timeOut specified.
 208:Generated_Source\PSoC5/UART_BOOT.c ****         */
 209:Generated_Source\PSoC5/UART_BOOT.c ****         else
 210:Generated_Source\PSoC5/UART_BOOT.c ****         {
 211:Generated_Source\PSoC5/UART_BOOT.c ****             CyDelay(UART_BL_CHK_DELAY_MS);
 235              		.loc 1 211 0 discriminator 2
 236 004a 0120     		movs	r0, #1
 237 004c FFF7FEFF 		bl	CyDelay
 183:Generated_Source\PSoC5/UART_BOOT.c ****     {
 238              		.loc 1 183 0 discriminator 2
 239 0050 FB8B     		ldrh	r3, [r7, #30]
 240 0052 0133     		adds	r3, r3, #1
 241 0054 FB83     		strh	r3, [r7, #30]	@ movhi
 242              	.L9:
 183:Generated_Source\PSoC5/UART_BOOT.c ****     {
ARM GAS  C:\Users\jobaek\AppData\Local\Temp\ccZH4Gvc.s 			page 9


 243              		.loc 1 183 0 is_stmt 0 discriminator 1
 244 0056 F98B     		ldrh	r1, [r7, #30]
 245 0058 7A7A     		ldrb	r2, [r7, #9]	@ zero_extendqisi2
 246 005a 1346     		mov	r3, r2
 247 005c 9B00     		lsls	r3, r3, #2
 248 005e 1344     		add	r3, r3, r2
 249 0060 5B00     		lsls	r3, r3, #1
 250 0062 9942     		cmp	r1, r3
 251 0064 DBDB     		blt	.L13
 252              	.L12:
 212:Generated_Source\PSoC5/UART_BOOT.c ****         }
 213:Generated_Source\PSoC5/UART_BOOT.c ****     }
 214:Generated_Source\PSoC5/UART_BOOT.c **** 
 215:Generated_Source\PSoC5/UART_BOOT.c ****     /* Initialize the data read indexes and Count value */
 216:Generated_Source\PSoC5/UART_BOOT.c ****     *count = 0u;
 253              		.loc 1 216 0 is_stmt 1
 254 0066 7B68     		ldr	r3, [r7, #4]
 255 0068 0022     		movs	r2, #0
 256 006a 1A80     		strh	r2, [r3]	@ movhi
 217:Generated_Source\PSoC5/UART_BOOT.c ****     dataIndexCntr = 0u;
 257              		.loc 1 217 0
 258 006c 0023     		movs	r3, #0
 259 006e BB83     		strh	r3, [r7, #28]	@ movhi
 218:Generated_Source\PSoC5/UART_BOOT.c **** 
 219:Generated_Source\PSoC5/UART_BOOT.c ****     /* If GetRxBufferSize()>0 , move the received data to the pData buffer */
 220:Generated_Source\PSoC5/UART_BOOT.c ****     while(UART_GetRxBufferSize() > 0u)
 260              		.loc 1 220 0
 261 0070 36E0     		b	.L14
 262              	.L20:
 221:Generated_Source\PSoC5/UART_BOOT.c ****     {
 222:Generated_Source\PSoC5/UART_BOOT.c ****         tempCount = UART_GetRxBufferSize();
 263              		.loc 1 222 0
 264 0072 FFF7FEFF 		bl	UART_GetRxBufferSize
 265 0076 0346     		mov	r3, r0
 266 0078 BB82     		strh	r3, [r7, #20]	@ movhi
 223:Generated_Source\PSoC5/UART_BOOT.c ****         *count  =(*count) + tempCount;
 267              		.loc 1 223 0
 268 007a 7B68     		ldr	r3, [r7, #4]
 269 007c 1A88     		ldrh	r2, [r3]
 270 007e BB8A     		ldrh	r3, [r7, #20]	@ movhi
 271 0080 1344     		add	r3, r3, r2
 272 0082 9AB2     		uxth	r2, r3
 273 0084 7B68     		ldr	r3, [r7, #4]
 274 0086 1A80     		strh	r2, [r3]	@ movhi
 224:Generated_Source\PSoC5/UART_BOOT.c **** 
 225:Generated_Source\PSoC5/UART_BOOT.c ****         /* Check if buffer overflow will occur before moving the data */
 226:Generated_Source\PSoC5/UART_BOOT.c ****         if(*count < size)
 275              		.loc 1 226 0
 276 0088 7B68     		ldr	r3, [r7, #4]
 277 008a 1B88     		ldrh	r3, [r3]
 278 008c 7A89     		ldrh	r2, [r7, #10]
 279 008e 9A42     		cmp	r2, r3
 280 0090 1ED9     		bls	.L15
 227:Generated_Source\PSoC5/UART_BOOT.c ****         {
 228:Generated_Source\PSoC5/UART_BOOT.c ****             for (iCntr = 0u; iCntr < tempCount; iCntr++)
 281              		.loc 1 228 0
 282 0092 0023     		movs	r3, #0
ARM GAS  C:\Users\jobaek\AppData\Local\Temp\ccZH4Gvc.s 			page 10


 283 0094 FB83     		strh	r3, [r7, #30]	@ movhi
 284 0096 0CE0     		b	.L16
 285              	.L17:
 229:Generated_Source\PSoC5/UART_BOOT.c ****             {
 230:Generated_Source\PSoC5/UART_BOOT.c ****                 /* Read the data and move it to the pData buffer */
 231:Generated_Source\PSoC5/UART_BOOT.c ****                 pData[dataIndexCntr] = UART_ReadRxData();
 286              		.loc 1 231 0 discriminator 3
 287 0098 BB8B     		ldrh	r3, [r7, #28]
 288 009a FA68     		ldr	r2, [r7, #12]
 289 009c D418     		adds	r4, r2, r3
 290 009e FFF7FEFF 		bl	UART_ReadRxData
 291 00a2 0346     		mov	r3, r0
 292 00a4 2370     		strb	r3, [r4]
 232:Generated_Source\PSoC5/UART_BOOT.c ****                 dataIndexCntr++;
 293              		.loc 1 232 0 discriminator 3
 294 00a6 BB8B     		ldrh	r3, [r7, #28]
 295 00a8 0133     		adds	r3, r3, #1
 296 00aa BB83     		strh	r3, [r7, #28]	@ movhi
 228:Generated_Source\PSoC5/UART_BOOT.c ****             {
 297              		.loc 1 228 0 discriminator 3
 298 00ac FB8B     		ldrh	r3, [r7, #30]
 299 00ae 0133     		adds	r3, r3, #1
 300 00b0 FB83     		strh	r3, [r7, #30]	@ movhi
 301              	.L16:
 228:Generated_Source\PSoC5/UART_BOOT.c ****             {
 302              		.loc 1 228 0 is_stmt 0 discriminator 1
 303 00b2 FA8B     		ldrh	r2, [r7, #30]
 304 00b4 BB8A     		ldrh	r3, [r7, #20]
 305 00b6 9A42     		cmp	r2, r3
 306 00b8 EED3     		bcc	.L17
 233:Generated_Source\PSoC5/UART_BOOT.c ****             }
 234:Generated_Source\PSoC5/UART_BOOT.c **** 
 235:Generated_Source\PSoC5/UART_BOOT.c ****             /* Check if the last received byte is end of packet defined by bootloader
 236:Generated_Source\PSoC5/UART_BOOT.c ****             *  If not wait for additional UART_WAIT_EOP_DELAY ms.
 237:Generated_Source\PSoC5/UART_BOOT.c ****             */
 238:Generated_Source\PSoC5/UART_BOOT.c ****             if(pData[dataIndexCntr - 1u] != UART_PACKET_EOP)
 307              		.loc 1 238 0 is_stmt 1
 308 00ba BB8B     		ldrh	r3, [r7, #28]
 309 00bc 013B     		subs	r3, r3, #1
 310 00be FA68     		ldr	r2, [r7, #12]
 311 00c0 1344     		add	r3, r3, r2
 312 00c2 1B78     		ldrb	r3, [r3]	@ zero_extendqisi2
 313 00c4 172B     		cmp	r3, #23
 314 00c6 0BD0     		beq	.L14
 239:Generated_Source\PSoC5/UART_BOOT.c ****             {
 240:Generated_Source\PSoC5/UART_BOOT.c ****                 CyDelay(UART_WAIT_EOP_DELAY);
 315              		.loc 1 240 0
 316 00c8 0520     		movs	r0, #5
 317 00ca FFF7FEFF 		bl	CyDelay
 318 00ce 07E0     		b	.L14
 319              	.L15:
 241:Generated_Source\PSoC5/UART_BOOT.c ****             }
 242:Generated_Source\PSoC5/UART_BOOT.c ****         }
 243:Generated_Source\PSoC5/UART_BOOT.c ****         /* If there is no space to move data, break from the loop */
 244:Generated_Source\PSoC5/UART_BOOT.c ****         else
 245:Generated_Source\PSoC5/UART_BOOT.c ****         {
 246:Generated_Source\PSoC5/UART_BOOT.c ****             *count = (*count) - tempCount;
ARM GAS  C:\Users\jobaek\AppData\Local\Temp\ccZH4Gvc.s 			page 11


 320              		.loc 1 246 0
 321 00d0 7B68     		ldr	r3, [r7, #4]
 322 00d2 1A88     		ldrh	r2, [r3]
 323 00d4 BB8A     		ldrh	r3, [r7, #20]	@ movhi
 324 00d6 D31A     		subs	r3, r2, r3
 325 00d8 9AB2     		uxth	r2, r3
 326 00da 7B68     		ldr	r3, [r7, #4]
 327 00dc 1A80     		strh	r2, [r3]	@ movhi
 247:Generated_Source\PSoC5/UART_BOOT.c ****             break;
 328              		.loc 1 247 0
 329 00de 04E0     		b	.L19
 330              	.L14:
 220:Generated_Source\PSoC5/UART_BOOT.c ****     {
 331              		.loc 1 220 0
 332 00e0 FFF7FEFF 		bl	UART_GetRxBufferSize
 333 00e4 0346     		mov	r3, r0
 334 00e6 002B     		cmp	r3, #0
 335 00e8 C3D1     		bne	.L20
 336              	.L19:
 248:Generated_Source\PSoC5/UART_BOOT.c ****         }
 249:Generated_Source\PSoC5/UART_BOOT.c ****     }
 250:Generated_Source\PSoC5/UART_BOOT.c **** 
 251:Generated_Source\PSoC5/UART_BOOT.c ****     return (status);
 337              		.loc 1 251 0
 338 00ea BB69     		ldr	r3, [r7, #24]
 252:Generated_Source\PSoC5/UART_BOOT.c **** }
 339              		.loc 1 252 0
 340 00ec 1846     		mov	r0, r3
 341 00ee 2437     		adds	r7, r7, #36
 342              		.cfi_def_cfa_offset 12
 343 00f0 BD46     		mov	sp, r7
 344              		.cfi_def_cfa_register 13
 345              		@ sp needed
 346 00f2 90BD     		pop	{r4, r7, pc}
 347              		.cfi_endproc
 348              	.LFE4:
 349              		.size	UART_CyBtldrCommRead, .-UART_CyBtldrCommRead
 350              		.text
 351              	.Letext0:
 352              		.file 2 "Generated_Source\\PSoC5\\cytypes.h"